
ctarget:     file format elf64-x86-64


Disassembly of section .init:

0000000000400c48 <_init>:
  400c48:	48 83 ec 08          	sub    $0x8,%rsp
  400c4c:	48 8b 05 a5 43 20 00 	mov    0x2043a5(%rip),%rax        # 604ff8 <__gmon_start__>
  400c53:	48 85 c0             	test   %rax,%rax
  400c56:	74 05                	je     400c5d <_init+0x15>
  400c58:	e8 43 02 00 00       	callq  400ea0 <__gmon_start__@plt>
  400c5d:	48 83 c4 08          	add    $0x8,%rsp
  400c61:	c3                   	retq   

Disassembly of section .plt:

0000000000400c70 <.plt>:
  400c70:	ff 35 92 43 20 00    	pushq  0x204392(%rip)        # 605008 <_GLOBAL_OFFSET_TABLE_+0x8>
  400c76:	ff 25 94 43 20 00    	jmpq   *0x204394(%rip)        # 605010 <_GLOBAL_OFFSET_TABLE_+0x10>
  400c7c:	0f 1f 40 00          	nopl   0x0(%rax)

0000000000400c80 <strcasecmp@plt>:
  400c80:	ff 25 92 43 20 00    	jmpq   *0x204392(%rip)        # 605018 <strcasecmp@GLIBC_2.2.5>
  400c86:	68 00 00 00 00       	pushq  $0x0
  400c8b:	e9 e0 ff ff ff       	jmpq   400c70 <.plt>

0000000000400c90 <__errno_location@plt>:
  400c90:	ff 25 8a 43 20 00    	jmpq   *0x20438a(%rip)        # 605020 <__errno_location@GLIBC_2.2.5>
  400c96:	68 01 00 00 00       	pushq  $0x1
  400c9b:	e9 d0 ff ff ff       	jmpq   400c70 <.plt>

0000000000400ca0 <srandom@plt>:
  400ca0:	ff 25 82 43 20 00    	jmpq   *0x204382(%rip)        # 605028 <srandom@GLIBC_2.2.5>
  400ca6:	68 02 00 00 00       	pushq  $0x2
  400cab:	e9 c0 ff ff ff       	jmpq   400c70 <.plt>

0000000000400cb0 <strncmp@plt>:
  400cb0:	ff 25 7a 43 20 00    	jmpq   *0x20437a(%rip)        # 605030 <strncmp@GLIBC_2.2.5>
  400cb6:	68 03 00 00 00       	pushq  $0x3
  400cbb:	e9 b0 ff ff ff       	jmpq   400c70 <.plt>

0000000000400cc0 <strcpy@plt>:
  400cc0:	ff 25 72 43 20 00    	jmpq   *0x204372(%rip)        # 605038 <strcpy@GLIBC_2.2.5>
  400cc6:	68 04 00 00 00       	pushq  $0x4
  400ccb:	e9 a0 ff ff ff       	jmpq   400c70 <.plt>

0000000000400cd0 <puts@plt>:
  400cd0:	ff 25 6a 43 20 00    	jmpq   *0x20436a(%rip)        # 605040 <puts@GLIBC_2.2.5>
  400cd6:	68 05 00 00 00       	pushq  $0x5
  400cdb:	e9 90 ff ff ff       	jmpq   400c70 <.plt>

0000000000400ce0 <write@plt>:
  400ce0:	ff 25 62 43 20 00    	jmpq   *0x204362(%rip)        # 605048 <write@GLIBC_2.2.5>
  400ce6:	68 06 00 00 00       	pushq  $0x6
  400ceb:	e9 80 ff ff ff       	jmpq   400c70 <.plt>

0000000000400cf0 <__stack_chk_fail@plt>:
  400cf0:	ff 25 5a 43 20 00    	jmpq   *0x20435a(%rip)        # 605050 <__stack_chk_fail@GLIBC_2.4>
  400cf6:	68 07 00 00 00       	pushq  $0x7
  400cfb:	e9 70 ff ff ff       	jmpq   400c70 <.plt>

0000000000400d00 <mmap@plt>:
  400d00:	ff 25 52 43 20 00    	jmpq   *0x204352(%rip)        # 605058 <mmap@GLIBC_2.2.5>
  400d06:	68 08 00 00 00       	pushq  $0x8
  400d0b:	e9 60 ff ff ff       	jmpq   400c70 <.plt>

0000000000400d10 <memset@plt>:
  400d10:	ff 25 4a 43 20 00    	jmpq   *0x20434a(%rip)        # 605060 <memset@GLIBC_2.2.5>
  400d16:	68 09 00 00 00       	pushq  $0x9
  400d1b:	e9 50 ff ff ff       	jmpq   400c70 <.plt>

0000000000400d20 <alarm@plt>:
  400d20:	ff 25 42 43 20 00    	jmpq   *0x204342(%rip)        # 605068 <alarm@GLIBC_2.2.5>
  400d26:	68 0a 00 00 00       	pushq  $0xa
  400d2b:	e9 40 ff ff ff       	jmpq   400c70 <.plt>

0000000000400d30 <close@plt>:
  400d30:	ff 25 3a 43 20 00    	jmpq   *0x20433a(%rip)        # 605070 <close@GLIBC_2.2.5>
  400d36:	68 0b 00 00 00       	pushq  $0xb
  400d3b:	e9 30 ff ff ff       	jmpq   400c70 <.plt>

0000000000400d40 <read@plt>:
  400d40:	ff 25 32 43 20 00    	jmpq   *0x204332(%rip)        # 605078 <read@GLIBC_2.2.5>
  400d46:	68 0c 00 00 00       	pushq  $0xc
  400d4b:	e9 20 ff ff ff       	jmpq   400c70 <.plt>

0000000000400d50 <__libc_start_main@plt>:
  400d50:	ff 25 2a 43 20 00    	jmpq   *0x20432a(%rip)        # 605080 <__libc_start_main@GLIBC_2.2.5>
  400d56:	68 0d 00 00 00       	pushq  $0xd
  400d5b:	e9 10 ff ff ff       	jmpq   400c70 <.plt>

0000000000400d60 <signal@plt>:
  400d60:	ff 25 22 43 20 00    	jmpq   *0x204322(%rip)        # 605088 <signal@GLIBC_2.2.5>
  400d66:	68 0e 00 00 00       	pushq  $0xe
  400d6b:	e9 00 ff ff ff       	jmpq   400c70 <.plt>

0000000000400d70 <gethostbyname@plt>:
  400d70:	ff 25 1a 43 20 00    	jmpq   *0x20431a(%rip)        # 605090 <gethostbyname@GLIBC_2.2.5>
  400d76:	68 0f 00 00 00       	pushq  $0xf
  400d7b:	e9 f0 fe ff ff       	jmpq   400c70 <.plt>

0000000000400d80 <__memmove_chk@plt>:
  400d80:	ff 25 12 43 20 00    	jmpq   *0x204312(%rip)        # 605098 <__memmove_chk@GLIBC_2.3.4>
  400d86:	68 10 00 00 00       	pushq  $0x10
  400d8b:	e9 e0 fe ff ff       	jmpq   400c70 <.plt>

0000000000400d90 <strtol@plt>:
  400d90:	ff 25 0a 43 20 00    	jmpq   *0x20430a(%rip)        # 6050a0 <strtol@GLIBC_2.2.5>
  400d96:	68 11 00 00 00       	pushq  $0x11
  400d9b:	e9 d0 fe ff ff       	jmpq   400c70 <.plt>

0000000000400da0 <memcpy@plt>:
  400da0:	ff 25 02 43 20 00    	jmpq   *0x204302(%rip)        # 6050a8 <memcpy@GLIBC_2.14>
  400da6:	68 12 00 00 00       	pushq  $0x12
  400dab:	e9 c0 fe ff ff       	jmpq   400c70 <.plt>

0000000000400db0 <time@plt>:
  400db0:	ff 25 fa 42 20 00    	jmpq   *0x2042fa(%rip)        # 6050b0 <time@GLIBC_2.2.5>
  400db6:	68 13 00 00 00       	pushq  $0x13
  400dbb:	e9 b0 fe ff ff       	jmpq   400c70 <.plt>

0000000000400dc0 <random@plt>:
  400dc0:	ff 25 f2 42 20 00    	jmpq   *0x2042f2(%rip)        # 6050b8 <random@GLIBC_2.2.5>
  400dc6:	68 14 00 00 00       	pushq  $0x14
  400dcb:	e9 a0 fe ff ff       	jmpq   400c70 <.plt>

0000000000400dd0 <_IO_getc@plt>:
  400dd0:	ff 25 ea 42 20 00    	jmpq   *0x2042ea(%rip)        # 6050c0 <_IO_getc@GLIBC_2.2.5>
  400dd6:	68 15 00 00 00       	pushq  $0x15
  400ddb:	e9 90 fe ff ff       	jmpq   400c70 <.plt>

0000000000400de0 <__isoc99_sscanf@plt>:
  400de0:	ff 25 e2 42 20 00    	jmpq   *0x2042e2(%rip)        # 6050c8 <__isoc99_sscanf@GLIBC_2.7>
  400de6:	68 16 00 00 00       	pushq  $0x16
  400deb:	e9 80 fe ff ff       	jmpq   400c70 <.plt>

0000000000400df0 <munmap@plt>:
  400df0:	ff 25 da 42 20 00    	jmpq   *0x2042da(%rip)        # 6050d0 <munmap@GLIBC_2.2.5>
  400df6:	68 17 00 00 00       	pushq  $0x17
  400dfb:	e9 70 fe ff ff       	jmpq   400c70 <.plt>

0000000000400e00 <__printf_chk@plt>:
  400e00:	ff 25 d2 42 20 00    	jmpq   *0x2042d2(%rip)        # 6050d8 <__printf_chk@GLIBC_2.3.4>
  400e06:	68 18 00 00 00       	pushq  $0x18
  400e0b:	e9 60 fe ff ff       	jmpq   400c70 <.plt>

0000000000400e10 <fopen@plt>:
  400e10:	ff 25 ca 42 20 00    	jmpq   *0x2042ca(%rip)        # 6050e0 <fopen@GLIBC_2.2.5>
  400e16:	68 19 00 00 00       	pushq  $0x19
  400e1b:	e9 50 fe ff ff       	jmpq   400c70 <.plt>

0000000000400e20 <getopt@plt>:
  400e20:	ff 25 c2 42 20 00    	jmpq   *0x2042c2(%rip)        # 6050e8 <getopt@GLIBC_2.2.5>
  400e26:	68 1a 00 00 00       	pushq  $0x1a
  400e2b:	e9 40 fe ff ff       	jmpq   400c70 <.plt>

0000000000400e30 <strtoul@plt>:
  400e30:	ff 25 ba 42 20 00    	jmpq   *0x2042ba(%rip)        # 6050f0 <strtoul@GLIBC_2.2.5>
  400e36:	68 1b 00 00 00       	pushq  $0x1b
  400e3b:	e9 30 fe ff ff       	jmpq   400c70 <.plt>

0000000000400e40 <gethostname@plt>:
  400e40:	ff 25 b2 42 20 00    	jmpq   *0x2042b2(%rip)        # 6050f8 <gethostname@GLIBC_2.2.5>
  400e46:	68 1c 00 00 00       	pushq  $0x1c
  400e4b:	e9 20 fe ff ff       	jmpq   400c70 <.plt>

0000000000400e50 <exit@plt>:
  400e50:	ff 25 aa 42 20 00    	jmpq   *0x2042aa(%rip)        # 605100 <exit@GLIBC_2.2.5>
  400e56:	68 1d 00 00 00       	pushq  $0x1d
  400e5b:	e9 10 fe ff ff       	jmpq   400c70 <.plt>

0000000000400e60 <connect@plt>:
  400e60:	ff 25 a2 42 20 00    	jmpq   *0x2042a2(%rip)        # 605108 <connect@GLIBC_2.2.5>
  400e66:	68 1e 00 00 00       	pushq  $0x1e
  400e6b:	e9 00 fe ff ff       	jmpq   400c70 <.plt>

0000000000400e70 <__fprintf_chk@plt>:
  400e70:	ff 25 9a 42 20 00    	jmpq   *0x20429a(%rip)        # 605110 <__fprintf_chk@GLIBC_2.3.4>
  400e76:	68 1f 00 00 00       	pushq  $0x1f
  400e7b:	e9 f0 fd ff ff       	jmpq   400c70 <.plt>

0000000000400e80 <__sprintf_chk@plt>:
  400e80:	ff 25 92 42 20 00    	jmpq   *0x204292(%rip)        # 605118 <__sprintf_chk@GLIBC_2.3.4>
  400e86:	68 20 00 00 00       	pushq  $0x20
  400e8b:	e9 e0 fd ff ff       	jmpq   400c70 <.plt>

0000000000400e90 <socket@plt>:
  400e90:	ff 25 8a 42 20 00    	jmpq   *0x20428a(%rip)        # 605120 <socket@GLIBC_2.2.5>
  400e96:	68 21 00 00 00       	pushq  $0x21
  400e9b:	e9 d0 fd ff ff       	jmpq   400c70 <.plt>

Disassembly of section .plt.got:

0000000000400ea0 <__gmon_start__@plt>:
  400ea0:	ff 25 52 41 20 00    	jmpq   *0x204152(%rip)        # 604ff8 <__gmon_start__>
  400ea6:	66 90                	xchg   %ax,%ax

Disassembly of section .text:

0000000000400eb0 <_start>:
  400eb0:	31 ed                	xor    %ebp,%ebp
  400eb2:	49 89 d1             	mov    %rdx,%r9
  400eb5:	5e                   	pop    %rsi
  400eb6:	48 89 e2             	mov    %rsp,%rdx
  400eb9:	48 83 e4 f0          	and    $0xfffffffffffffff0,%rsp
  400ebd:	50                   	push   %rax
  400ebe:	54                   	push   %rsp
  400ebf:	49 c7 c0 50 2f 40 00 	mov    $0x402f50,%r8
  400ec6:	48 c7 c1 e0 2e 40 00 	mov    $0x402ee0,%rcx
  400ecd:	48 c7 c7 b5 11 40 00 	mov    $0x4011b5,%rdi
  400ed4:	e8 77 fe ff ff       	callq  400d50 <__libc_start_main@plt>
  400ed9:	f4                   	hlt    
  400eda:	66 0f 1f 44 00 00    	nopw   0x0(%rax,%rax,1)

0000000000400ee0 <deregister_tm_clones>:
  400ee0:	b8 b7 54 60 00       	mov    $0x6054b7,%eax
  400ee5:	55                   	push   %rbp
  400ee6:	48 2d b0 54 60 00    	sub    $0x6054b0,%rax
  400eec:	48 83 f8 0e          	cmp    $0xe,%rax
  400ef0:	48 89 e5             	mov    %rsp,%rbp
  400ef3:	76 1b                	jbe    400f10 <deregister_tm_clones+0x30>
  400ef5:	b8 00 00 00 00       	mov    $0x0,%eax
  400efa:	48 85 c0             	test   %rax,%rax
  400efd:	74 11                	je     400f10 <deregister_tm_clones+0x30>
  400eff:	5d                   	pop    %rbp
  400f00:	bf b0 54 60 00       	mov    $0x6054b0,%edi
  400f05:	ff e0                	jmpq   *%rax
  400f07:	66 0f 1f 84 00 00 00 	nopw   0x0(%rax,%rax,1)
  400f0e:	00 00 
  400f10:	5d                   	pop    %rbp
  400f11:	c3                   	retq   
  400f12:	0f 1f 40 00          	nopl   0x0(%rax)
  400f16:	66 2e 0f 1f 84 00 00 	nopw   %cs:0x0(%rax,%rax,1)
  400f1d:	00 00 00 

0000000000400f20 <register_tm_clones>:
  400f20:	be b0 54 60 00       	mov    $0x6054b0,%esi
  400f25:	55                   	push   %rbp
  400f26:	48 81 ee b0 54 60 00 	sub    $0x6054b0,%rsi
  400f2d:	48 c1 fe 03          	sar    $0x3,%rsi
  400f31:	48 89 e5             	mov    %rsp,%rbp
  400f34:	48 89 f0             	mov    %rsi,%rax
  400f37:	48 c1 e8 3f          	shr    $0x3f,%rax
  400f3b:	48 01 c6             	add    %rax,%rsi
  400f3e:	48 d1 fe             	sar    %rsi
  400f41:	74 15                	je     400f58 <register_tm_clones+0x38>
  400f43:	b8 00 00 00 00       	mov    $0x0,%eax
  400f48:	48 85 c0             	test   %rax,%rax
  400f4b:	74 0b                	je     400f58 <register_tm_clones+0x38>
  400f4d:	5d                   	pop    %rbp
  400f4e:	bf b0 54 60 00       	mov    $0x6054b0,%edi
  400f53:	ff e0                	jmpq   *%rax
  400f55:	0f 1f 00             	nopl   (%rax)
  400f58:	5d                   	pop    %rbp
  400f59:	c3                   	retq   
  400f5a:	66 0f 1f 44 00 00    	nopw   0x0(%rax,%rax,1)

0000000000400f60 <__do_global_dtors_aux>:
  400f60:	80 3d 81 45 20 00 00 	cmpb   $0x0,0x204581(%rip)        # 6054e8 <completed.7594>
  400f67:	75 11                	jne    400f7a <__do_global_dtors_aux+0x1a>
  400f69:	55                   	push   %rbp
  400f6a:	48 89 e5             	mov    %rsp,%rbp
  400f6d:	e8 6e ff ff ff       	callq  400ee0 <deregister_tm_clones>
  400f72:	5d                   	pop    %rbp
  400f73:	c6 05 6e 45 20 00 01 	movb   $0x1,0x20456e(%rip)        # 6054e8 <completed.7594>
  400f7a:	f3 c3                	repz retq 
  400f7c:	0f 1f 40 00          	nopl   0x0(%rax)

0000000000400f80 <frame_dummy>:
  400f80:	bf 20 4e 60 00       	mov    $0x604e20,%edi
  400f85:	48 83 3f 00          	cmpq   $0x0,(%rdi)
  400f89:	75 05                	jne    400f90 <frame_dummy+0x10>
  400f8b:	eb 93                	jmp    400f20 <register_tm_clones>
  400f8d:	0f 1f 00             	nopl   (%rax)
  400f90:	b8 00 00 00 00       	mov    $0x0,%eax
  400f95:	48 85 c0             	test   %rax,%rax
  400f98:	74 f1                	je     400f8b <frame_dummy+0xb>
  400f9a:	55                   	push   %rbp
  400f9b:	48 89 e5             	mov    %rsp,%rbp
  400f9e:	ff d0                	callq  *%rax
  400fa0:	5d                   	pop    %rbp
  400fa1:	e9 7a ff ff ff       	jmpq   400f20 <register_tm_clones>

0000000000400fa6 <usage>:
  400fa6:	48 83 ec 08          	sub    $0x8,%rsp
  400faa:	48 89 fa             	mov    %rdi,%rdx
  400fad:	83 3d 74 45 20 00 00 	cmpl   $0x0,0x204574(%rip)        # 605528 <is_checker>
  400fb4:	74 3e                	je     400ff4 <usage+0x4e>
  400fb6:	be 68 2f 40 00       	mov    $0x402f68,%esi
  400fbb:	bf 01 00 00 00       	mov    $0x1,%edi
  400fc0:	b8 00 00 00 00       	mov    $0x0,%eax
  400fc5:	e8 36 fe ff ff       	callq  400e00 <__printf_chk@plt>
  400fca:	bf a0 2f 40 00       	mov    $0x402fa0,%edi
  400fcf:	e8 fc fc ff ff       	callq  400cd0 <puts@plt>
  400fd4:	bf 18 31 40 00       	mov    $0x403118,%edi
  400fd9:	e8 f2 fc ff ff       	callq  400cd0 <puts@plt>
  400fde:	bf c8 2f 40 00       	mov    $0x402fc8,%edi
  400fe3:	e8 e8 fc ff ff       	callq  400cd0 <puts@plt>
  400fe8:	bf 32 31 40 00       	mov    $0x403132,%edi
  400fed:	e8 de fc ff ff       	callq  400cd0 <puts@plt>
  400ff2:	eb 32                	jmp    401026 <usage+0x80>
  400ff4:	be 4e 31 40 00       	mov    $0x40314e,%esi
  400ff9:	bf 01 00 00 00       	mov    $0x1,%edi
  400ffe:	b8 00 00 00 00       	mov    $0x0,%eax
  401003:	e8 f8 fd ff ff       	callq  400e00 <__printf_chk@plt>
  401008:	bf f0 2f 40 00       	mov    $0x402ff0,%edi
  40100d:	e8 be fc ff ff       	callq  400cd0 <puts@plt>
  401012:	bf 18 30 40 00       	mov    $0x403018,%edi
  401017:	e8 b4 fc ff ff       	callq  400cd0 <puts@plt>
  40101c:	bf 6c 31 40 00       	mov    $0x40316c,%edi
  401021:	e8 aa fc ff ff       	callq  400cd0 <puts@plt>
  401026:	bf 00 00 00 00       	mov    $0x0,%edi
  40102b:	e8 20 fe ff ff       	callq  400e50 <exit@plt>

0000000000401030 <initialize_target>:
  401030:	55                   	push   %rbp
  401031:	53                   	push   %rbx
  401032:	48 81 ec 18 21 00 00 	sub    $0x2118,%rsp
  401039:	89 f5                	mov    %esi,%ebp
  40103b:	64 48 8b 04 25 28 00 	mov    %fs:0x28,%rax
  401042:	00 00 
  401044:	48 89 84 24 08 21 00 	mov    %rax,0x2108(%rsp)
  40104b:	00 
  40104c:	31 c0                	xor    %eax,%eax
  40104e:	89 3d c4 44 20 00    	mov    %edi,0x2044c4(%rip)        # 605518 <check_level>
  401054:	8b 3d 0e 41 20 00    	mov    0x20410e(%rip),%edi        # 605168 <target_id>
  40105a:	e8 56 1e 00 00       	callq  402eb5 <gencookie>
  40105f:	89 05 bf 44 20 00    	mov    %eax,0x2044bf(%rip)        # 605524 <cookie>
  401065:	89 c7                	mov    %eax,%edi
  401067:	e8 49 1e 00 00       	callq  402eb5 <gencookie>
  40106c:	89 05 ae 44 20 00    	mov    %eax,0x2044ae(%rip)        # 605520 <authkey>
  401072:	8b 05 f0 40 20 00    	mov    0x2040f0(%rip),%eax        # 605168 <target_id>
  401078:	8d 78 01             	lea    0x1(%rax),%edi
  40107b:	e8 20 fc ff ff       	callq  400ca0 <srandom@plt>
  401080:	e8 3b fd ff ff       	callq  400dc0 <random@plt>
  401085:	89 c7                	mov    %eax,%edi
  401087:	e8 03 03 00 00       	callq  40138f <scramble>
  40108c:	89 c3                	mov    %eax,%ebx
  40108e:	85 ed                	test   %ebp,%ebp
  401090:	74 18                	je     4010aa <initialize_target+0x7a>
  401092:	bf 00 00 00 00       	mov    $0x0,%edi
  401097:	e8 14 fd ff ff       	callq  400db0 <time@plt>
  40109c:	89 c7                	mov    %eax,%edi
  40109e:	e8 fd fb ff ff       	callq  400ca0 <srandom@plt>
  4010a3:	e8 18 fd ff ff       	callq  400dc0 <random@plt>
  4010a8:	eb 05                	jmp    4010af <initialize_target+0x7f>
  4010aa:	b8 00 00 00 00       	mov    $0x0,%eax
  4010af:	01 c3                	add    %eax,%ebx
  4010b1:	0f b7 db             	movzwl %bx,%ebx
  4010b4:	8d 04 dd 00 01 00 00 	lea    0x100(,%rbx,8),%eax
  4010bb:	89 c0                	mov    %eax,%eax
  4010bd:	48 89 05 dc 43 20 00 	mov    %rax,0x2043dc(%rip)        # 6054a0 <buf_offset>
  4010c4:	c6 05 7d 50 20 00 63 	movb   $0x63,0x20507d(%rip)        # 606148 <target_prefix>
  4010cb:	83 3d d6 43 20 00 00 	cmpl   $0x0,0x2043d6(%rip)        # 6054a8 <notify>
  4010d2:	0f 84 bb 00 00 00    	je     401193 <initialize_target+0x163>
  4010d8:	83 3d 49 44 20 00 00 	cmpl   $0x0,0x204449(%rip)        # 605528 <is_checker>
  4010df:	0f 85 ae 00 00 00    	jne    401193 <initialize_target+0x163>
  4010e5:	be 00 01 00 00       	mov    $0x100,%esi
  4010ea:	48 89 e7             	mov    %rsp,%rdi
  4010ed:	e8 4e fd ff ff       	callq  400e40 <gethostname@plt>
  4010f2:	85 c0                	test   %eax,%eax
  4010f4:	74 25                	je     40111b <initialize_target+0xeb>
  4010f6:	bf 48 30 40 00       	mov    $0x403048,%edi
  4010fb:	e8 d0 fb ff ff       	callq  400cd0 <puts@plt>
  401100:	bf 08 00 00 00       	mov    $0x8,%edi
  401105:	e8 46 fd ff ff       	callq  400e50 <exit@plt>
  40110a:	48 89 e6             	mov    %rsp,%rsi
  40110d:	e8 6e fb ff ff       	callq  400c80 <strcasecmp@plt>
  401112:	85 c0                	test   %eax,%eax
  401114:	74 21                	je     401137 <initialize_target+0x107>
  401116:	83 c3 01             	add    $0x1,%ebx
  401119:	eb 05                	jmp    401120 <initialize_target+0xf0>
  40111b:	bb 00 00 00 00       	mov    $0x0,%ebx
  401120:	48 63 c3             	movslq %ebx,%rax
  401123:	48 8b 3c c5 80 51 60 	mov    0x605180(,%rax,8),%rdi
  40112a:	00 
  40112b:	48 85 ff             	test   %rdi,%rdi
  40112e:	75 da                	jne    40110a <initialize_target+0xda>
  401130:	b8 00 00 00 00       	mov    $0x0,%eax
  401135:	eb 05                	jmp    40113c <initialize_target+0x10c>
  401137:	b8 01 00 00 00       	mov    $0x1,%eax
  40113c:	85 c0                	test   %eax,%eax
  40113e:	75 1c                	jne    40115c <initialize_target+0x12c>
  401140:	48 89 e2             	mov    %rsp,%rdx
  401143:	be 80 30 40 00       	mov    $0x403080,%esi
  401148:	bf 01 00 00 00       	mov    $0x1,%edi
  40114d:	e8 ae fc ff ff       	callq  400e00 <__printf_chk@plt>
  401152:	bf 08 00 00 00       	mov    $0x8,%edi
  401157:	e8 f4 fc ff ff       	callq  400e50 <exit@plt>
  40115c:	48 8d bc 24 00 01 00 	lea    0x100(%rsp),%rdi
  401163:	00 
  401164:	e8 b6 1a 00 00       	callq  402c1f <init_driver>
  401169:	85 c0                	test   %eax,%eax
  40116b:	79 26                	jns    401193 <initialize_target+0x163>
  40116d:	48 8d 94 24 00 01 00 	lea    0x100(%rsp),%rdx
  401174:	00 
  401175:	be c0 30 40 00       	mov    $0x4030c0,%esi
  40117a:	bf 01 00 00 00       	mov    $0x1,%edi
  40117f:	b8 00 00 00 00       	mov    $0x0,%eax
  401184:	e8 77 fc ff ff       	callq  400e00 <__printf_chk@plt>
  401189:	bf 08 00 00 00       	mov    $0x8,%edi
  40118e:	e8 bd fc ff ff       	callq  400e50 <exit@plt>
  401193:	48 8b 84 24 08 21 00 	mov    0x2108(%rsp),%rax
  40119a:	00 
  40119b:	64 48 33 04 25 28 00 	xor    %fs:0x28,%rax
  4011a2:	00 00 
  4011a4:	74 05                	je     4011ab <initialize_target+0x17b>
  4011a6:	e8 45 fb ff ff       	callq  400cf0 <__stack_chk_fail@plt>
  4011ab:	48 81 c4 18 21 00 00 	add    $0x2118,%rsp
  4011b2:	5b                   	pop    %rbx
  4011b3:	5d                   	pop    %rbp
  4011b4:	c3                   	retq   

00000000004011b5 <main>:
  4011b5:	41 56                	push   %r14
  4011b7:	41 55                	push   %r13
  4011b9:	41 54                	push   %r12
  4011bb:	55                   	push   %rbp
  4011bc:	53                   	push   %rbx
  4011bd:	41 89 fc             	mov    %edi,%r12d
  4011c0:	48 89 f3             	mov    %rsi,%rbx
  4011c3:	be 5a 1f 40 00       	mov    $0x401f5a,%esi
  4011c8:	bf 0b 00 00 00       	mov    $0xb,%edi
  4011cd:	e8 8e fb ff ff       	callq  400d60 <signal@plt>
  4011d2:	be 0c 1f 40 00       	mov    $0x401f0c,%esi
  4011d7:	bf 07 00 00 00       	mov    $0x7,%edi
  4011dc:	e8 7f fb ff ff       	callq  400d60 <signal@plt>
  4011e1:	be a8 1f 40 00       	mov    $0x401fa8,%esi
  4011e6:	bf 04 00 00 00       	mov    $0x4,%edi
  4011eb:	e8 70 fb ff ff       	callq  400d60 <signal@plt>
  4011f0:	83 3d 31 43 20 00 00 	cmpl   $0x0,0x204331(%rip)        # 605528 <is_checker>
  4011f7:	74 20                	je     401219 <main+0x64>
  4011f9:	be f6 1f 40 00       	mov    $0x401ff6,%esi
  4011fe:	bf 0e 00 00 00       	mov    $0xe,%edi
  401203:	e8 58 fb ff ff       	callq  400d60 <signal@plt>
  401208:	bf 05 00 00 00       	mov    $0x5,%edi
  40120d:	e8 0e fb ff ff       	callq  400d20 <alarm@plt>
  401212:	bd 8a 31 40 00       	mov    $0x40318a,%ebp
  401217:	eb 05                	jmp    40121e <main+0x69>
  401219:	bd 85 31 40 00       	mov    $0x403185,%ebp
  40121e:	48 8b 05 9b 42 20 00 	mov    0x20429b(%rip),%rax        # 6054c0 <stdin@@GLIBC_2.2.5>
  401225:	48 89 05 e4 42 20 00 	mov    %rax,0x2042e4(%rip)        # 605510 <infile>
  40122c:	41 bd 00 00 00 00    	mov    $0x0,%r13d
  401232:	41 be 00 00 00 00    	mov    $0x0,%r14d
  401238:	e9 c6 00 00 00       	jmpq   401303 <main+0x14e>
  40123d:	83 e8 61             	sub    $0x61,%eax
  401240:	3c 10                	cmp    $0x10,%al
  401242:	0f 87 9c 00 00 00    	ja     4012e4 <main+0x12f>
  401248:	0f b6 c0             	movzbl %al,%eax
  40124b:	ff 24 c5 d0 31 40 00 	jmpq   *0x4031d0(,%rax,8)
  401252:	48 8b 3b             	mov    (%rbx),%rdi
  401255:	e8 4c fd ff ff       	callq  400fa6 <usage>
  40125a:	be c5 35 40 00       	mov    $0x4035c5,%esi
  40125f:	48 8b 3d 62 42 20 00 	mov    0x204262(%rip),%rdi        # 6054c8 <optarg@@GLIBC_2.2.5>
  401266:	e8 a5 fb ff ff       	callq  400e10 <fopen@plt>
  40126b:	48 89 05 9e 42 20 00 	mov    %rax,0x20429e(%rip)        # 605510 <infile>
  401272:	48 85 c0             	test   %rax,%rax
  401275:	0f 85 88 00 00 00    	jne    401303 <main+0x14e>
  40127b:	48 8b 0d 46 42 20 00 	mov    0x204246(%rip),%rcx        # 6054c8 <optarg@@GLIBC_2.2.5>
  401282:	ba 92 31 40 00       	mov    $0x403192,%edx
  401287:	be 01 00 00 00       	mov    $0x1,%esi
  40128c:	48 8b 3d 4d 42 20 00 	mov    0x20424d(%rip),%rdi        # 6054e0 <stderr@@GLIBC_2.2.5>
  401293:	e8 d8 fb ff ff       	callq  400e70 <__fprintf_chk@plt>
  401298:	b8 01 00 00 00       	mov    $0x1,%eax
  40129d:	e9 e4 00 00 00       	jmpq   401386 <main+0x1d1>
  4012a2:	ba 10 00 00 00       	mov    $0x10,%edx
  4012a7:	be 00 00 00 00       	mov    $0x0,%esi
  4012ac:	48 8b 3d 15 42 20 00 	mov    0x204215(%rip),%rdi        # 6054c8 <optarg@@GLIBC_2.2.5>
  4012b3:	e8 78 fb ff ff       	callq  400e30 <strtoul@plt>
  4012b8:	41 89 c6             	mov    %eax,%r14d
  4012bb:	eb 46                	jmp    401303 <main+0x14e>
  4012bd:	ba 0a 00 00 00       	mov    $0xa,%edx
  4012c2:	be 00 00 00 00       	mov    $0x0,%esi
  4012c7:	48 8b 3d fa 41 20 00 	mov    0x2041fa(%rip),%rdi        # 6054c8 <optarg@@GLIBC_2.2.5>
  4012ce:	e8 bd fa ff ff       	callq  400d90 <strtol@plt>
  4012d3:	41 89 c5             	mov    %eax,%r13d
  4012d6:	eb 2b                	jmp    401303 <main+0x14e>
  4012d8:	c7 05 c6 41 20 00 00 	movl   $0x0,0x2041c6(%rip)        # 6054a8 <notify>
  4012df:	00 00 00 
  4012e2:	eb 1f                	jmp    401303 <main+0x14e>
  4012e4:	0f be d2             	movsbl %dl,%edx
  4012e7:	be af 31 40 00       	mov    $0x4031af,%esi
  4012ec:	bf 01 00 00 00       	mov    $0x1,%edi
  4012f1:	b8 00 00 00 00       	mov    $0x0,%eax
  4012f6:	e8 05 fb ff ff       	callq  400e00 <__printf_chk@plt>
  4012fb:	48 8b 3b             	mov    (%rbx),%rdi
  4012fe:	e8 a3 fc ff ff       	callq  400fa6 <usage>
  401303:	48 89 ea             	mov    %rbp,%rdx
  401306:	48 89 de             	mov    %rbx,%rsi
  401309:	44 89 e7             	mov    %r12d,%edi
  40130c:	e8 0f fb ff ff       	callq  400e20 <getopt@plt>
  401311:	89 c2                	mov    %eax,%edx
  401313:	3c ff                	cmp    $0xff,%al
  401315:	0f 85 22 ff ff ff    	jne    40123d <main+0x88>
  40131b:	be 00 00 00 00       	mov    $0x0,%esi
  401320:	44 89 ef             	mov    %r13d,%edi
  401323:	e8 08 fd ff ff       	callq  401030 <initialize_target>
  401328:	83 3d f9 41 20 00 00 	cmpl   $0x0,0x2041f9(%rip)        # 605528 <is_checker>
  40132f:	74 2a                	je     40135b <main+0x1a6>
  401331:	44 3b 35 e8 41 20 00 	cmp    0x2041e8(%rip),%r14d        # 605520 <authkey>
  401338:	74 21                	je     40135b <main+0x1a6>
  40133a:	44 89 f2             	mov    %r14d,%edx
  40133d:	be e8 30 40 00       	mov    $0x4030e8,%esi
  401342:	bf 01 00 00 00       	mov    $0x1,%edi
  401347:	b8 00 00 00 00       	mov    $0x0,%eax
  40134c:	e8 af fa ff ff       	callq  400e00 <__printf_chk@plt>
  401351:	b8 00 00 00 00       	mov    $0x0,%eax
  401356:	e8 4d 08 00 00       	callq  401ba8 <check_fail>
  40135b:	8b 15 c3 41 20 00    	mov    0x2041c3(%rip),%edx        # 605524 <cookie>
  401361:	be c2 31 40 00       	mov    $0x4031c2,%esi
  401366:	bf 01 00 00 00       	mov    $0x1,%edi
  40136b:	b8 00 00 00 00       	mov    $0x0,%eax
  401370:	e8 8b fa ff ff       	callq  400e00 <__printf_chk@plt>
  401375:	48 8b 3d 24 41 20 00 	mov    0x204124(%rip),%rdi        # 6054a0 <buf_offset>
  40137c:	e8 75 0d 00 00       	callq  4020f6 <stable_launch>
  401381:	b8 00 00 00 00       	mov    $0x0,%eax
  401386:	5b                   	pop    %rbx
  401387:	5d                   	pop    %rbp
  401388:	41 5c                	pop    %r12
  40138a:	41 5d                	pop    %r13
  40138c:	41 5e                	pop    %r14
  40138e:	c3                   	retq   

000000000040138f <scramble>:
  40138f:	48 83 ec 38          	sub    $0x38,%rsp
  401393:	64 48 8b 04 25 28 00 	mov    %fs:0x28,%rax
  40139a:	00 00 
  40139c:	48 89 44 24 28       	mov    %rax,0x28(%rsp)
  4013a1:	31 c0                	xor    %eax,%eax
  4013a3:	eb 10                	jmp    4013b5 <scramble+0x26>
  4013a5:	69 d0 df 1f 00 00    	imul   $0x1fdf,%eax,%edx
  4013ab:	01 fa                	add    %edi,%edx
  4013ad:	89 c1                	mov    %eax,%ecx
  4013af:	89 14 8c             	mov    %edx,(%rsp,%rcx,4)
  4013b2:	83 c0 01             	add    $0x1,%eax
  4013b5:	83 f8 09             	cmp    $0x9,%eax
  4013b8:	76 eb                	jbe    4013a5 <scramble+0x16>
  4013ba:	8b 44 24 20          	mov    0x20(%rsp),%eax
  4013be:	69 c0 45 57 00 00    	imul   $0x5745,%eax,%eax
  4013c4:	89 44 24 20          	mov    %eax,0x20(%rsp)
  4013c8:	8b 44 24 1c          	mov    0x1c(%rsp),%eax
  4013cc:	69 c0 1f 50 00 00    	imul   $0x501f,%eax,%eax
  4013d2:	89 44 24 1c          	mov    %eax,0x1c(%rsp)
  4013d6:	8b 44 24 14          	mov    0x14(%rsp),%eax
  4013da:	69 c0 9e c5 00 00    	imul   $0xc59e,%eax,%eax
  4013e0:	89 44 24 14          	mov    %eax,0x14(%rsp)
  4013e4:	8b 44 24 20          	mov    0x20(%rsp),%eax
  4013e8:	69 c0 a2 9d 00 00    	imul   $0x9da2,%eax,%eax
  4013ee:	89 44 24 20          	mov    %eax,0x20(%rsp)
  4013f2:	8b 04 24             	mov    (%rsp),%eax
  4013f5:	69 c0 da a9 00 00    	imul   $0xa9da,%eax,%eax
  4013fb:	89 04 24             	mov    %eax,(%rsp)
  4013fe:	8b 44 24 0c          	mov    0xc(%rsp),%eax
  401402:	69 c0 5b 2a 00 00    	imul   $0x2a5b,%eax,%eax
  401408:	89 44 24 0c          	mov    %eax,0xc(%rsp)
  40140c:	8b 44 24 1c          	mov    0x1c(%rsp),%eax
  401410:	69 c0 11 b2 00 00    	imul   $0xb211,%eax,%eax
  401416:	89 44 24 1c          	mov    %eax,0x1c(%rsp)
  40141a:	8b 44 24 20          	mov    0x20(%rsp),%eax
  40141e:	69 c0 51 71 00 00    	imul   $0x7151,%eax,%eax
  401424:	89 44 24 20          	mov    %eax,0x20(%rsp)
  401428:	8b 44 24 24          	mov    0x24(%rsp),%eax
  40142c:	69 c0 51 ac 00 00    	imul   $0xac51,%eax,%eax
  401432:	89 44 24 24          	mov    %eax,0x24(%rsp)
  401436:	8b 44 24 18          	mov    0x18(%rsp),%eax
  40143a:	69 c0 d2 18 00 00    	imul   $0x18d2,%eax,%eax
  401440:	89 44 24 18          	mov    %eax,0x18(%rsp)
  401444:	8b 44 24 10          	mov    0x10(%rsp),%eax
  401448:	69 c0 d8 e9 00 00    	imul   $0xe9d8,%eax,%eax
  40144e:	89 44 24 10          	mov    %eax,0x10(%rsp)
  401452:	8b 44 24 14          	mov    0x14(%rsp),%eax
  401456:	69 c0 84 90 00 00    	imul   $0x9084,%eax,%eax
  40145c:	89 44 24 14          	mov    %eax,0x14(%rsp)
  401460:	8b 44 24 14          	mov    0x14(%rsp),%eax
  401464:	69 c0 51 6a 00 00    	imul   $0x6a51,%eax,%eax
  40146a:	89 44 24 14          	mov    %eax,0x14(%rsp)
  40146e:	8b 04 24             	mov    (%rsp),%eax
  401471:	69 c0 4d 9d 00 00    	imul   $0x9d4d,%eax,%eax
  401477:	89 04 24             	mov    %eax,(%rsp)
  40147a:	8b 44 24 10          	mov    0x10(%rsp),%eax
  40147e:	69 c0 31 a5 00 00    	imul   $0xa531,%eax,%eax
  401484:	89 44 24 10          	mov    %eax,0x10(%rsp)
  401488:	8b 44 24 08          	mov    0x8(%rsp),%eax
  40148c:	69 c0 29 83 00 00    	imul   $0x8329,%eax,%eax
  401492:	89 44 24 08          	mov    %eax,0x8(%rsp)
  401496:	8b 44 24 10          	mov    0x10(%rsp),%eax
  40149a:	69 c0 ef 24 00 00    	imul   $0x24ef,%eax,%eax
  4014a0:	89 44 24 10          	mov    %eax,0x10(%rsp)
  4014a4:	8b 44 24 14          	mov    0x14(%rsp),%eax
  4014a8:	69 c0 6b 5e 00 00    	imul   $0x5e6b,%eax,%eax
  4014ae:	89 44 24 14          	mov    %eax,0x14(%rsp)
  4014b2:	8b 44 24 20          	mov    0x20(%rsp),%eax
  4014b6:	69 c0 50 60 00 00    	imul   $0x6050,%eax,%eax
  4014bc:	89 44 24 20          	mov    %eax,0x20(%rsp)
  4014c0:	8b 44 24 18          	mov    0x18(%rsp),%eax
  4014c4:	69 c0 24 01 00 00    	imul   $0x124,%eax,%eax
  4014ca:	89 44 24 18          	mov    %eax,0x18(%rsp)
  4014ce:	8b 44 24 04          	mov    0x4(%rsp),%eax
  4014d2:	69 c0 b8 92 00 00    	imul   $0x92b8,%eax,%eax
  4014d8:	89 44 24 04          	mov    %eax,0x4(%rsp)
  4014dc:	8b 44 24 14          	mov    0x14(%rsp),%eax
  4014e0:	69 c0 63 56 00 00    	imul   $0x5663,%eax,%eax
  4014e6:	89 44 24 14          	mov    %eax,0x14(%rsp)
  4014ea:	8b 44 24 20          	mov    0x20(%rsp),%eax
  4014ee:	69 c0 ce 22 00 00    	imul   $0x22ce,%eax,%eax
  4014f4:	89 44 24 20          	mov    %eax,0x20(%rsp)
  4014f8:	8b 44 24 10          	mov    0x10(%rsp),%eax
  4014fc:	69 c0 cf 3b 00 00    	imul   $0x3bcf,%eax,%eax
  401502:	89 44 24 10          	mov    %eax,0x10(%rsp)
  401506:	8b 44 24 24          	mov    0x24(%rsp),%eax
  40150a:	69 c0 84 bf 00 00    	imul   $0xbf84,%eax,%eax
  401510:	89 44 24 24          	mov    %eax,0x24(%rsp)
  401514:	8b 44 24 20          	mov    0x20(%rsp),%eax
  401518:	69 c0 e6 3f 00 00    	imul   $0x3fe6,%eax,%eax
  40151e:	89 44 24 20          	mov    %eax,0x20(%rsp)
  401522:	8b 44 24 18          	mov    0x18(%rsp),%eax
  401526:	69 c0 fe 74 00 00    	imul   $0x74fe,%eax,%eax
  40152c:	89 44 24 18          	mov    %eax,0x18(%rsp)
  401530:	8b 44 24 24          	mov    0x24(%rsp),%eax
  401534:	69 c0 6e 88 00 00    	imul   $0x886e,%eax,%eax
  40153a:	89 44 24 24          	mov    %eax,0x24(%rsp)
  40153e:	8b 44 24 04          	mov    0x4(%rsp),%eax
  401542:	69 c0 02 2d 00 00    	imul   $0x2d02,%eax,%eax
  401548:	89 44 24 04          	mov    %eax,0x4(%rsp)
  40154c:	8b 44 24 24          	mov    0x24(%rsp),%eax
  401550:	69 c0 99 42 00 00    	imul   $0x4299,%eax,%eax
  401556:	89 44 24 24          	mov    %eax,0x24(%rsp)
  40155a:	8b 44 24 18          	mov    0x18(%rsp),%eax
  40155e:	69 c0 59 bf 00 00    	imul   $0xbf59,%eax,%eax
  401564:	89 44 24 18          	mov    %eax,0x18(%rsp)
  401568:	8b 44 24 20          	mov    0x20(%rsp),%eax
  40156c:	69 c0 a9 ce 00 00    	imul   $0xcea9,%eax,%eax
  401572:	89 44 24 20          	mov    %eax,0x20(%rsp)
  401576:	8b 44 24 08          	mov    0x8(%rsp),%eax
  40157a:	69 c0 0b 99 00 00    	imul   $0x990b,%eax,%eax
  401580:	89 44 24 08          	mov    %eax,0x8(%rsp)
  401584:	8b 44 24 14          	mov    0x14(%rsp),%eax
  401588:	69 c0 d6 ce 00 00    	imul   $0xced6,%eax,%eax
  40158e:	89 44 24 14          	mov    %eax,0x14(%rsp)
  401592:	8b 04 24             	mov    (%rsp),%eax
  401595:	69 c0 22 29 00 00    	imul   $0x2922,%eax,%eax
  40159b:	89 04 24             	mov    %eax,(%rsp)
  40159e:	8b 44 24 08          	mov    0x8(%rsp),%eax
  4015a2:	69 c0 85 03 00 00    	imul   $0x385,%eax,%eax
  4015a8:	89 44 24 08          	mov    %eax,0x8(%rsp)
  4015ac:	8b 44 24 04          	mov    0x4(%rsp),%eax
  4015b0:	69 c0 79 fb 00 00    	imul   $0xfb79,%eax,%eax
  4015b6:	89 44 24 04          	mov    %eax,0x4(%rsp)
  4015ba:	8b 44 24 24          	mov    0x24(%rsp),%eax
  4015be:	69 c0 a3 00 00 00    	imul   $0xa3,%eax,%eax
  4015c4:	89 44 24 24          	mov    %eax,0x24(%rsp)
  4015c8:	8b 44 24 10          	mov    0x10(%rsp),%eax
  4015cc:	69 c0 9d 21 00 00    	imul   $0x219d,%eax,%eax
  4015d2:	89 44 24 10          	mov    %eax,0x10(%rsp)
  4015d6:	8b 44 24 04          	mov    0x4(%rsp),%eax
  4015da:	69 c0 67 ed 00 00    	imul   $0xed67,%eax,%eax
  4015e0:	89 44 24 04          	mov    %eax,0x4(%rsp)
  4015e4:	8b 44 24 18          	mov    0x18(%rsp),%eax
  4015e8:	69 c0 14 91 00 00    	imul   $0x9114,%eax,%eax
  4015ee:	89 44 24 18          	mov    %eax,0x18(%rsp)
  4015f2:	8b 04 24             	mov    (%rsp),%eax
  4015f5:	69 c0 7e 8a 00 00    	imul   $0x8a7e,%eax,%eax
  4015fb:	89 04 24             	mov    %eax,(%rsp)
  4015fe:	8b 44 24 20          	mov    0x20(%rsp),%eax
  401602:	69 c0 b8 fd 00 00    	imul   $0xfdb8,%eax,%eax
  401608:	89 44 24 20          	mov    %eax,0x20(%rsp)
  40160c:	8b 44 24 20          	mov    0x20(%rsp),%eax
  401610:	69 c0 61 e5 00 00    	imul   $0xe561,%eax,%eax
  401616:	89 44 24 20          	mov    %eax,0x20(%rsp)
  40161a:	8b 44 24 10          	mov    0x10(%rsp),%eax
  40161e:	69 c0 a7 38 00 00    	imul   $0x38a7,%eax,%eax
  401624:	89 44 24 10          	mov    %eax,0x10(%rsp)
  401628:	8b 44 24 18          	mov    0x18(%rsp),%eax
  40162c:	69 c0 ed fc 00 00    	imul   $0xfced,%eax,%eax
  401632:	89 44 24 18          	mov    %eax,0x18(%rsp)
  401636:	8b 04 24             	mov    (%rsp),%eax
  401639:	69 c0 bc ed 00 00    	imul   $0xedbc,%eax,%eax
  40163f:	89 04 24             	mov    %eax,(%rsp)
  401642:	8b 44 24 0c          	mov    0xc(%rsp),%eax
  401646:	69 c0 49 dc 00 00    	imul   $0xdc49,%eax,%eax
  40164c:	89 44 24 0c          	mov    %eax,0xc(%rsp)
  401650:	8b 44 24 04          	mov    0x4(%rsp),%eax
  401654:	69 c0 ab f8 00 00    	imul   $0xf8ab,%eax,%eax
  40165a:	89 44 24 04          	mov    %eax,0x4(%rsp)
  40165e:	8b 44 24 14          	mov    0x14(%rsp),%eax
  401662:	69 c0 22 80 00 00    	imul   $0x8022,%eax,%eax
  401668:	89 44 24 14          	mov    %eax,0x14(%rsp)
  40166c:	8b 44 24 08          	mov    0x8(%rsp),%eax
  401670:	69 c0 19 7b 00 00    	imul   $0x7b19,%eax,%eax
  401676:	89 44 24 08          	mov    %eax,0x8(%rsp)
  40167a:	8b 44 24 08          	mov    0x8(%rsp),%eax
  40167e:	69 c0 a8 dd 00 00    	imul   $0xdda8,%eax,%eax
  401684:	89 44 24 08          	mov    %eax,0x8(%rsp)
  401688:	8b 44 24 24          	mov    0x24(%rsp),%eax
  40168c:	69 c0 91 dd 00 00    	imul   $0xdd91,%eax,%eax
  401692:	89 44 24 24          	mov    %eax,0x24(%rsp)
  401696:	8b 44 24 18          	mov    0x18(%rsp),%eax
  40169a:	69 c0 d9 94 00 00    	imul   $0x94d9,%eax,%eax
  4016a0:	89 44 24 18          	mov    %eax,0x18(%rsp)
  4016a4:	8b 44 24 24          	mov    0x24(%rsp),%eax
  4016a8:	69 c0 be 1a 00 00    	imul   $0x1abe,%eax,%eax
  4016ae:	89 44 24 24          	mov    %eax,0x24(%rsp)
  4016b2:	8b 04 24             	mov    (%rsp),%eax
  4016b5:	69 c0 50 e0 00 00    	imul   $0xe050,%eax,%eax
  4016bb:	89 04 24             	mov    %eax,(%rsp)
  4016be:	8b 04 24             	mov    (%rsp),%eax
  4016c1:	69 c0 8f af 00 00    	imul   $0xaf8f,%eax,%eax
  4016c7:	89 04 24             	mov    %eax,(%rsp)
  4016ca:	8b 44 24 04          	mov    0x4(%rsp),%eax
  4016ce:	69 c0 e4 b1 00 00    	imul   $0xb1e4,%eax,%eax
  4016d4:	89 44 24 04          	mov    %eax,0x4(%rsp)
  4016d8:	8b 44 24 14          	mov    0x14(%rsp),%eax
  4016dc:	69 c0 ba 7d 00 00    	imul   $0x7dba,%eax,%eax
  4016e2:	89 44 24 14          	mov    %eax,0x14(%rsp)
  4016e6:	8b 44 24 24          	mov    0x24(%rsp),%eax
  4016ea:	69 c0 02 d8 00 00    	imul   $0xd802,%eax,%eax
  4016f0:	89 44 24 24          	mov    %eax,0x24(%rsp)
  4016f4:	8b 44 24 04          	mov    0x4(%rsp),%eax
  4016f8:	69 c0 3f bf 00 00    	imul   $0xbf3f,%eax,%eax
  4016fe:	89 44 24 04          	mov    %eax,0x4(%rsp)
  401702:	8b 44 24 04          	mov    0x4(%rsp),%eax
  401706:	69 c0 61 ae 00 00    	imul   $0xae61,%eax,%eax
  40170c:	89 44 24 04          	mov    %eax,0x4(%rsp)
  401710:	8b 44 24 08          	mov    0x8(%rsp),%eax
  401714:	69 c0 86 a0 00 00    	imul   $0xa086,%eax,%eax
  40171a:	89 44 24 08          	mov    %eax,0x8(%rsp)
  40171e:	8b 44 24 1c          	mov    0x1c(%rsp),%eax
  401722:	69 c0 c3 33 00 00    	imul   $0x33c3,%eax,%eax
  401728:	89 44 24 1c          	mov    %eax,0x1c(%rsp)
  40172c:	8b 44 24 1c          	mov    0x1c(%rsp),%eax
  401730:	69 c0 c9 35 00 00    	imul   $0x35c9,%eax,%eax
  401736:	89 44 24 1c          	mov    %eax,0x1c(%rsp)
  40173a:	8b 44 24 18          	mov    0x18(%rsp),%eax
  40173e:	69 c0 fe ba 00 00    	imul   $0xbafe,%eax,%eax
  401744:	89 44 24 18          	mov    %eax,0x18(%rsp)
  401748:	8b 44 24 08          	mov    0x8(%rsp),%eax
  40174c:	69 c0 8d 37 00 00    	imul   $0x378d,%eax,%eax
  401752:	89 44 24 08          	mov    %eax,0x8(%rsp)
  401756:	8b 44 24 20          	mov    0x20(%rsp),%eax
  40175a:	69 c0 74 27 00 00    	imul   $0x2774,%eax,%eax
  401760:	89 44 24 20          	mov    %eax,0x20(%rsp)
  401764:	8b 44 24 10          	mov    0x10(%rsp),%eax
  401768:	69 c0 f2 76 00 00    	imul   $0x76f2,%eax,%eax
  40176e:	89 44 24 10          	mov    %eax,0x10(%rsp)
  401772:	8b 44 24 20          	mov    0x20(%rsp),%eax
  401776:	69 c0 4d 14 00 00    	imul   $0x144d,%eax,%eax
  40177c:	89 44 24 20          	mov    %eax,0x20(%rsp)
  401780:	8b 44 24 1c          	mov    0x1c(%rsp),%eax
  401784:	69 c0 8f 3e 00 00    	imul   $0x3e8f,%eax,%eax
  40178a:	89 44 24 1c          	mov    %eax,0x1c(%rsp)
  40178e:	8b 44 24 10          	mov    0x10(%rsp),%eax
  401792:	69 c0 82 3d 00 00    	imul   $0x3d82,%eax,%eax
  401798:	89 44 24 10          	mov    %eax,0x10(%rsp)
  40179c:	8b 44 24 10          	mov    0x10(%rsp),%eax
  4017a0:	69 c0 6b 5f 00 00    	imul   $0x5f6b,%eax,%eax
  4017a6:	89 44 24 10          	mov    %eax,0x10(%rsp)
  4017aa:	8b 44 24 24          	mov    0x24(%rsp),%eax
  4017ae:	69 c0 65 9b 00 00    	imul   $0x9b65,%eax,%eax
  4017b4:	89 44 24 24          	mov    %eax,0x24(%rsp)
  4017b8:	8b 44 24 24          	mov    0x24(%rsp),%eax
  4017bc:	69 c0 ab 86 00 00    	imul   $0x86ab,%eax,%eax
  4017c2:	89 44 24 24          	mov    %eax,0x24(%rsp)
  4017c6:	8b 04 24             	mov    (%rsp),%eax
  4017c9:	69 c0 86 93 00 00    	imul   $0x9386,%eax,%eax
  4017cf:	89 04 24             	mov    %eax,(%rsp)
  4017d2:	8b 44 24 14          	mov    0x14(%rsp),%eax
  4017d6:	69 c0 57 48 00 00    	imul   $0x4857,%eax,%eax
  4017dc:	89 44 24 14          	mov    %eax,0x14(%rsp)
  4017e0:	8b 44 24 1c          	mov    0x1c(%rsp),%eax
  4017e4:	69 c0 e5 f2 00 00    	imul   $0xf2e5,%eax,%eax
  4017ea:	89 44 24 1c          	mov    %eax,0x1c(%rsp)
  4017ee:	8b 04 24             	mov    (%rsp),%eax
  4017f1:	69 c0 92 cc 00 00    	imul   $0xcc92,%eax,%eax
  4017f7:	89 04 24             	mov    %eax,(%rsp)
  4017fa:	8b 44 24 0c          	mov    0xc(%rsp),%eax
  4017fe:	69 c0 0e 82 00 00    	imul   $0x820e,%eax,%eax
  401804:	89 44 24 0c          	mov    %eax,0xc(%rsp)
  401808:	8b 44 24 20          	mov    0x20(%rsp),%eax
  40180c:	69 c0 8e da 00 00    	imul   $0xda8e,%eax,%eax
  401812:	89 44 24 20          	mov    %eax,0x20(%rsp)
  401816:	8b 44 24 04          	mov    0x4(%rsp),%eax
  40181a:	69 c0 3e b3 00 00    	imul   $0xb33e,%eax,%eax
  401820:	89 44 24 04          	mov    %eax,0x4(%rsp)
  401824:	8b 04 24             	mov    (%rsp),%eax
  401827:	69 c0 b3 d5 00 00    	imul   $0xd5b3,%eax,%eax
  40182d:	89 04 24             	mov    %eax,(%rsp)
  401830:	8b 44 24 1c          	mov    0x1c(%rsp),%eax
  401834:	69 c0 3a 27 00 00    	imul   $0x273a,%eax,%eax
  40183a:	89 44 24 1c          	mov    %eax,0x1c(%rsp)
  40183e:	8b 44 24 24          	mov    0x24(%rsp),%eax
  401842:	69 c0 00 97 00 00    	imul   $0x9700,%eax,%eax
  401848:	89 44 24 24          	mov    %eax,0x24(%rsp)
  40184c:	8b 44 24 04          	mov    0x4(%rsp),%eax
  401850:	69 c0 55 de 00 00    	imul   $0xde55,%eax,%eax
  401856:	89 44 24 04          	mov    %eax,0x4(%rsp)
  40185a:	8b 44 24 1c          	mov    0x1c(%rsp),%eax
  40185e:	69 c0 24 30 00 00    	imul   $0x3024,%eax,%eax
  401864:	89 44 24 1c          	mov    %eax,0x1c(%rsp)
  401868:	8b 44 24 1c          	mov    0x1c(%rsp),%eax
  40186c:	69 c0 ad c3 00 00    	imul   $0xc3ad,%eax,%eax
  401872:	89 44 24 1c          	mov    %eax,0x1c(%rsp)
  401876:	8b 44 24 0c          	mov    0xc(%rsp),%eax
  40187a:	69 c0 3d 0b 00 00    	imul   $0xb3d,%eax,%eax
  401880:	89 44 24 0c          	mov    %eax,0xc(%rsp)
  401884:	8b 44 24 08          	mov    0x8(%rsp),%eax
  401888:	69 c0 b4 6c 00 00    	imul   $0x6cb4,%eax,%eax
  40188e:	89 44 24 08          	mov    %eax,0x8(%rsp)
  401892:	8b 44 24 18          	mov    0x18(%rsp),%eax
  401896:	69 c0 7a d2 00 00    	imul   $0xd27a,%eax,%eax
  40189c:	89 44 24 18          	mov    %eax,0x18(%rsp)
  4018a0:	8b 44 24 24          	mov    0x24(%rsp),%eax
  4018a4:	69 c0 d2 d7 00 00    	imul   $0xd7d2,%eax,%eax
  4018aa:	89 44 24 24          	mov    %eax,0x24(%rsp)
  4018ae:	8b 44 24 14          	mov    0x14(%rsp),%eax
  4018b2:	69 c0 21 42 00 00    	imul   $0x4221,%eax,%eax
  4018b8:	89 44 24 14          	mov    %eax,0x14(%rsp)
  4018bc:	8b 44 24 04          	mov    0x4(%rsp),%eax
  4018c0:	69 c0 ae 03 00 00    	imul   $0x3ae,%eax,%eax
  4018c6:	89 44 24 04          	mov    %eax,0x4(%rsp)
  4018ca:	8b 44 24 08          	mov    0x8(%rsp),%eax
  4018ce:	69 c0 60 f1 00 00    	imul   $0xf160,%eax,%eax
  4018d4:	89 44 24 08          	mov    %eax,0x8(%rsp)
  4018d8:	8b 44 24 20          	mov    0x20(%rsp),%eax
  4018dc:	69 c0 0f 11 00 00    	imul   $0x110f,%eax,%eax
  4018e2:	89 44 24 20          	mov    %eax,0x20(%rsp)
  4018e6:	8b 44 24 1c          	mov    0x1c(%rsp),%eax
  4018ea:	69 c0 c9 c2 00 00    	imul   $0xc2c9,%eax,%eax
  4018f0:	89 44 24 1c          	mov    %eax,0x1c(%rsp)
  4018f4:	8b 44 24 18          	mov    0x18(%rsp),%eax
  4018f8:	69 c0 09 de 00 00    	imul   $0xde09,%eax,%eax
  4018fe:	89 44 24 18          	mov    %eax,0x18(%rsp)
  401902:	8b 44 24 0c          	mov    0xc(%rsp),%eax
  401906:	69 c0 ff 9e 00 00    	imul   $0x9eff,%eax,%eax
  40190c:	89 44 24 0c          	mov    %eax,0xc(%rsp)
  401910:	8b 44 24 10          	mov    0x10(%rsp),%eax
  401914:	69 c0 21 e5 00 00    	imul   $0xe521,%eax,%eax
  40191a:	89 44 24 10          	mov    %eax,0x10(%rsp)
  40191e:	ba 00 00 00 00       	mov    $0x0,%edx
  401923:	b8 00 00 00 00       	mov    $0x0,%eax
  401928:	eb 0a                	jmp    401934 <scramble+0x5a5>
  40192a:	89 d1                	mov    %edx,%ecx
  40192c:	8b 0c 8c             	mov    (%rsp,%rcx,4),%ecx
  40192f:	01 c8                	add    %ecx,%eax
  401931:	83 c2 01             	add    $0x1,%edx
  401934:	83 fa 09             	cmp    $0x9,%edx
  401937:	76 f1                	jbe    40192a <scramble+0x59b>
  401939:	48 8b 74 24 28       	mov    0x28(%rsp),%rsi
  40193e:	64 48 33 34 25 28 00 	xor    %fs:0x28,%rsi
  401945:	00 00 
  401947:	74 05                	je     40194e <scramble+0x5bf>
  401949:	e8 a2 f3 ff ff       	callq  400cf0 <__stack_chk_fail@plt>
  40194e:	48 83 c4 38          	add    $0x38,%rsp
  401952:	c3                   	retq   

0000000000401953 <getbuf>:
  401953:	48 83 ec 28          	sub    $0x28,%rsp
  401957:	48 89 e7             	mov    %rsp,%rdi
  40195a:	e8 7e 02 00 00       	callq  401bdd <Gets>
  40195f:	b8 01 00 00 00       	mov    $0x1,%eax
  401964:	48 83 c4 28          	add    $0x28,%rsp
  401968:	c3                   	retq   

0000000000401969 <touch1>:
  401969:	48 83 ec 08          	sub    $0x8,%rsp
  40196d:	c7 05 a5 3b 20 00 01 	movl   $0x1,0x203ba5(%rip)        # 60551c <vlevel>
  401974:	00 00 00 
  401977:	bf 1c 34 40 00       	mov    $0x40341c,%edi
  40197c:	e8 4f f3 ff ff       	callq  400cd0 <puts@plt>
  401981:	bf 01 00 00 00       	mov    $0x1,%edi
  401986:	e8 97 04 00 00       	callq  401e22 <validate>
  40198b:	bf 00 00 00 00       	mov    $0x0,%edi
  401990:	e8 bb f4 ff ff       	callq  400e50 <exit@plt>

0000000000401995 <touch2>:
  401995:	48 83 ec 08          	sub    $0x8,%rsp
  401999:	89 fa                	mov    %edi,%edx
  40199b:	c7 05 77 3b 20 00 02 	movl   $0x2,0x203b77(%rip)        # 60551c <vlevel>
  4019a2:	00 00 00 
  4019a5:	39 3d 79 3b 20 00    	cmp    %edi,0x203b79(%rip)        # 605524 <cookie>
  4019ab:	75 20                	jne    4019cd <touch2+0x38>
  4019ad:	be 40 34 40 00       	mov    $0x403440,%esi
  4019b2:	bf 01 00 00 00       	mov    $0x1,%edi
  4019b7:	b8 00 00 00 00       	mov    $0x0,%eax
  4019bc:	e8 3f f4 ff ff       	callq  400e00 <__printf_chk@plt>
  4019c1:	bf 02 00 00 00       	mov    $0x2,%edi
  4019c6:	e8 57 04 00 00       	callq  401e22 <validate>
  4019cb:	eb 1e                	jmp    4019eb <touch2+0x56>
  4019cd:	be 68 34 40 00       	mov    $0x403468,%esi
  4019d2:	bf 01 00 00 00       	mov    $0x1,%edi
  4019d7:	b8 00 00 00 00       	mov    $0x0,%eax
  4019dc:	e8 1f f4 ff ff       	callq  400e00 <__printf_chk@plt>
  4019e1:	bf 02 00 00 00       	mov    $0x2,%edi
  4019e6:	e8 f9 04 00 00       	callq  401ee4 <fail>
  4019eb:	bf 00 00 00 00       	mov    $0x0,%edi
  4019f0:	e8 5b f4 ff ff       	callq  400e50 <exit@plt>

00000000004019f5 <hexmatch>:
  4019f5:	41 54                	push   %r12
  4019f7:	55                   	push   %rbp
  4019f8:	53                   	push   %rbx
  4019f9:	48 83 c4 80          	add    $0xffffffffffffff80,%rsp
  4019fd:	89 fd                	mov    %edi,%ebp
  4019ff:	48 89 f3             	mov    %rsi,%rbx
  401a02:	64 48 8b 04 25 28 00 	mov    %fs:0x28,%rax
  401a09:	00 00 
  401a0b:	48 89 44 24 78       	mov    %rax,0x78(%rsp)
  401a10:	31 c0                	xor    %eax,%eax
  401a12:	e8 a9 f3 ff ff       	callq  400dc0 <random@plt>
  401a17:	48 89 c1             	mov    %rax,%rcx
  401a1a:	48 ba 0b d7 a3 70 3d 	movabs $0xa3d70a3d70a3d70b,%rdx
  401a21:	0a d7 a3 
  401a24:	48 f7 ea             	imul   %rdx
  401a27:	48 01 ca             	add    %rcx,%rdx
  401a2a:	48 c1 fa 06          	sar    $0x6,%rdx
  401a2e:	48 89 c8             	mov    %rcx,%rax
  401a31:	48 c1 f8 3f          	sar    $0x3f,%rax
  401a35:	48 29 c2             	sub    %rax,%rdx
  401a38:	48 8d 04 92          	lea    (%rdx,%rdx,4),%rax
  401a3c:	48 8d 14 80          	lea    (%rax,%rax,4),%rdx
  401a40:	48 8d 04 95 00 00 00 	lea    0x0(,%rdx,4),%rax
  401a47:	00 
  401a48:	48 29 c1             	sub    %rax,%rcx
  401a4b:	4c 8d 24 0c          	lea    (%rsp,%rcx,1),%r12
  401a4f:	41 89 e8             	mov    %ebp,%r8d
  401a52:	b9 39 34 40 00       	mov    $0x403439,%ecx
  401a57:	48 c7 c2 ff ff ff ff 	mov    $0xffffffffffffffff,%rdx
  401a5e:	be 01 00 00 00       	mov    $0x1,%esi
  401a63:	4c 89 e7             	mov    %r12,%rdi
  401a66:	b8 00 00 00 00       	mov    $0x0,%eax
  401a6b:	e8 10 f4 ff ff       	callq  400e80 <__sprintf_chk@plt>
  401a70:	ba 09 00 00 00       	mov    $0x9,%edx
  401a75:	4c 89 e6             	mov    %r12,%rsi
  401a78:	48 89 df             	mov    %rbx,%rdi
  401a7b:	e8 30 f2 ff ff       	callq  400cb0 <strncmp@plt>
  401a80:	85 c0                	test   %eax,%eax
  401a82:	0f 94 c0             	sete   %al
  401a85:	48 8b 5c 24 78       	mov    0x78(%rsp),%rbx
  401a8a:	64 48 33 1c 25 28 00 	xor    %fs:0x28,%rbx
  401a91:	00 00 
  401a93:	74 05                	je     401a9a <hexmatch+0xa5>
  401a95:	e8 56 f2 ff ff       	callq  400cf0 <__stack_chk_fail@plt>
  401a9a:	0f b6 c0             	movzbl %al,%eax
  401a9d:	48 83 ec 80          	sub    $0xffffffffffffff80,%rsp
  401aa1:	5b                   	pop    %rbx
  401aa2:	5d                   	pop    %rbp
  401aa3:	41 5c                	pop    %r12
  401aa5:	c3                   	retq   

0000000000401aa6 <touch3>:
  401aa6:	53                   	push   %rbx
  401aa7:	48 89 fb             	mov    %rdi,%rbx
  401aaa:	c7 05 68 3a 20 00 03 	movl   $0x3,0x203a68(%rip)        # 60551c <vlevel>
  401ab1:	00 00 00 
  401ab4:	48 89 fe             	mov    %rdi,%rsi
  401ab7:	8b 3d 67 3a 20 00    	mov    0x203a67(%rip),%edi        # 605524 <cookie>
  401abd:	e8 33 ff ff ff       	callq  4019f5 <hexmatch>
  401ac2:	85 c0                	test   %eax,%eax
  401ac4:	74 23                	je     401ae9 <touch3+0x43>
  401ac6:	48 89 da             	mov    %rbx,%rdx
  401ac9:	be 90 34 40 00       	mov    $0x403490,%esi
  401ace:	bf 01 00 00 00       	mov    $0x1,%edi
  401ad3:	b8 00 00 00 00       	mov    $0x0,%eax
  401ad8:	e8 23 f3 ff ff       	callq  400e00 <__printf_chk@plt>
  401add:	bf 03 00 00 00       	mov    $0x3,%edi
  401ae2:	e8 3b 03 00 00       	callq  401e22 <validate>
  401ae7:	eb 21                	jmp    401b0a <touch3+0x64>
  401ae9:	48 89 da             	mov    %rbx,%rdx
  401aec:	be b8 34 40 00       	mov    $0x4034b8,%esi
  401af1:	bf 01 00 00 00       	mov    $0x1,%edi
  401af6:	b8 00 00 00 00       	mov    $0x0,%eax
  401afb:	e8 00 f3 ff ff       	callq  400e00 <__printf_chk@plt>
  401b00:	bf 03 00 00 00       	mov    $0x3,%edi
  401b05:	e8 da 03 00 00       	callq  401ee4 <fail>
  401b0a:	bf 00 00 00 00       	mov    $0x0,%edi
  401b0f:	e8 3c f3 ff ff       	callq  400e50 <exit@plt>

0000000000401b14 <test>:
  401b14:	48 83 ec 08          	sub    $0x8,%rsp
  401b18:	b8 00 00 00 00       	mov    $0x0,%eax
  401b1d:	e8 31 fe ff ff       	callq  401953 <getbuf>
  401b22:	89 c2                	mov    %eax,%edx
  401b24:	be e0 34 40 00       	mov    $0x4034e0,%esi
  401b29:	bf 01 00 00 00       	mov    $0x1,%edi
  401b2e:	b8 00 00 00 00       	mov    $0x0,%eax
  401b33:	e8 c8 f2 ff ff       	callq  400e00 <__printf_chk@plt>
  401b38:	48 83 c4 08          	add    $0x8,%rsp
  401b3c:	c3                   	retq   

0000000000401b3d <save_char>:
  401b3d:	8b 05 01 46 20 00    	mov    0x204601(%rip),%eax        # 606144 <gets_cnt>
  401b43:	3d ff 03 00 00       	cmp    $0x3ff,%eax
  401b48:	7f 49                	jg     401b93 <save_char+0x56>
  401b4a:	8d 14 40             	lea    (%rax,%rax,2),%edx
  401b4d:	89 f9                	mov    %edi,%ecx
  401b4f:	c0 e9 04             	shr    $0x4,%cl
  401b52:	83 e1 0f             	and    $0xf,%ecx
  401b55:	0f b6 b1 00 38 40 00 	movzbl 0x403800(%rcx),%esi
  401b5c:	48 63 ca             	movslq %edx,%rcx
  401b5f:	40 88 b1 40 55 60 00 	mov    %sil,0x605540(%rcx)
  401b66:	8d 4a 01             	lea    0x1(%rdx),%ecx
  401b69:	83 e7 0f             	and    $0xf,%edi
  401b6c:	0f b6 b7 00 38 40 00 	movzbl 0x403800(%rdi),%esi
  401b73:	48 63 c9             	movslq %ecx,%rcx
  401b76:	40 88 b1 40 55 60 00 	mov    %sil,0x605540(%rcx)
  401b7d:	83 c2 02             	add    $0x2,%edx
  401b80:	48 63 d2             	movslq %edx,%rdx
  401b83:	c6 82 40 55 60 00 20 	movb   $0x20,0x605540(%rdx)
  401b8a:	83 c0 01             	add    $0x1,%eax
  401b8d:	89 05 b1 45 20 00    	mov    %eax,0x2045b1(%rip)        # 606144 <gets_cnt>
  401b93:	f3 c3                	repz retq 

0000000000401b95 <save_term>:
  401b95:	8b 05 a9 45 20 00    	mov    0x2045a9(%rip),%eax        # 606144 <gets_cnt>
  401b9b:	8d 04 40             	lea    (%rax,%rax,2),%eax
  401b9e:	48 98                	cltq   
  401ba0:	c6 80 40 55 60 00 00 	movb   $0x0,0x605540(%rax)
  401ba7:	c3                   	retq   

0000000000401ba8 <check_fail>:
  401ba8:	48 83 ec 08          	sub    $0x8,%rsp
  401bac:	0f be 15 95 45 20 00 	movsbl 0x204595(%rip),%edx        # 606148 <target_prefix>
  401bb3:	41 b8 40 55 60 00    	mov    $0x605540,%r8d
  401bb9:	8b 0d 59 39 20 00    	mov    0x203959(%rip),%ecx        # 605518 <check_level>
  401bbf:	be 03 35 40 00       	mov    $0x403503,%esi
  401bc4:	bf 01 00 00 00       	mov    $0x1,%edi
  401bc9:	b8 00 00 00 00       	mov    $0x0,%eax
  401bce:	e8 2d f2 ff ff       	callq  400e00 <__printf_chk@plt>
  401bd3:	bf 01 00 00 00       	mov    $0x1,%edi
  401bd8:	e8 73 f2 ff ff       	callq  400e50 <exit@plt>

0000000000401bdd <Gets>:
  401bdd:	41 54                	push   %r12
  401bdf:	55                   	push   %rbp
  401be0:	53                   	push   %rbx
  401be1:	49 89 fc             	mov    %rdi,%r12
  401be4:	c7 05 56 45 20 00 00 	movl   $0x0,0x204556(%rip)        # 606144 <gets_cnt>
  401beb:	00 00 00 
  401bee:	48 89 fb             	mov    %rdi,%rbx
  401bf1:	eb 11                	jmp    401c04 <Gets+0x27>
  401bf3:	48 8d 6b 01          	lea    0x1(%rbx),%rbp
  401bf7:	88 03                	mov    %al,(%rbx)
  401bf9:	0f b6 f8             	movzbl %al,%edi
  401bfc:	e8 3c ff ff ff       	callq  401b3d <save_char>
  401c01:	48 89 eb             	mov    %rbp,%rbx
  401c04:	48 8b 3d 05 39 20 00 	mov    0x203905(%rip),%rdi        # 605510 <infile>
  401c0b:	e8 c0 f1 ff ff       	callq  400dd0 <_IO_getc@plt>
  401c10:	83 f8 ff             	cmp    $0xffffffff,%eax
  401c13:	74 05                	je     401c1a <Gets+0x3d>
  401c15:	83 f8 0a             	cmp    $0xa,%eax
  401c18:	75 d9                	jne    401bf3 <Gets+0x16>
  401c1a:	c6 03 00             	movb   $0x0,(%rbx)
  401c1d:	b8 00 00 00 00       	mov    $0x0,%eax
  401c22:	e8 6e ff ff ff       	callq  401b95 <save_term>
  401c27:	4c 89 e0             	mov    %r12,%rax
  401c2a:	5b                   	pop    %rbx
  401c2b:	5d                   	pop    %rbp
  401c2c:	41 5c                	pop    %r12
  401c2e:	c3                   	retq   

0000000000401c2f <notify_server>:
  401c2f:	53                   	push   %rbx
  401c30:	48 81 ec 10 40 00 00 	sub    $0x4010,%rsp
  401c37:	64 48 8b 04 25 28 00 	mov    %fs:0x28,%rax
  401c3e:	00 00 
  401c40:	48 89 84 24 08 40 00 	mov    %rax,0x4008(%rsp)
  401c47:	00 
  401c48:	31 c0                	xor    %eax,%eax
  401c4a:	83 3d d7 38 20 00 00 	cmpl   $0x0,0x2038d7(%rip)        # 605528 <is_checker>
  401c51:	0f 85 aa 01 00 00    	jne    401e01 <notify_server+0x1d2>
  401c57:	89 fb                	mov    %edi,%ebx
  401c59:	8b 05 e5 44 20 00    	mov    0x2044e5(%rip),%eax        # 606144 <gets_cnt>
  401c5f:	83 c0 64             	add    $0x64,%eax
  401c62:	3d 00 20 00 00       	cmp    $0x2000,%eax
  401c67:	7e 1e                	jle    401c87 <notify_server+0x58>
  401c69:	be 38 36 40 00       	mov    $0x403638,%esi
  401c6e:	bf 01 00 00 00       	mov    $0x1,%edi
  401c73:	b8 00 00 00 00       	mov    $0x0,%eax
  401c78:	e8 83 f1 ff ff       	callq  400e00 <__printf_chk@plt>
  401c7d:	bf 01 00 00 00       	mov    $0x1,%edi
  401c82:	e8 c9 f1 ff ff       	callq  400e50 <exit@plt>
  401c87:	0f be 05 ba 44 20 00 	movsbl 0x2044ba(%rip),%eax        # 606148 <target_prefix>
  401c8e:	83 3d 13 38 20 00 00 	cmpl   $0x0,0x203813(%rip)        # 6054a8 <notify>
  401c95:	74 08                	je     401c9f <notify_server+0x70>
  401c97:	8b 15 83 38 20 00    	mov    0x203883(%rip),%edx        # 605520 <authkey>
  401c9d:	eb 05                	jmp    401ca4 <notify_server+0x75>
  401c9f:	ba ff ff ff ff       	mov    $0xffffffff,%edx
  401ca4:	85 db                	test   %ebx,%ebx
  401ca6:	74 08                	je     401cb0 <notify_server+0x81>
  401ca8:	41 b9 19 35 40 00    	mov    $0x403519,%r9d
  401cae:	eb 06                	jmp    401cb6 <notify_server+0x87>
  401cb0:	41 b9 1e 35 40 00    	mov    $0x40351e,%r9d
  401cb6:	68 40 55 60 00       	pushq  $0x605540
  401cbb:	56                   	push   %rsi
  401cbc:	50                   	push   %rax
  401cbd:	52                   	push   %rdx
  401cbe:	44 8b 05 a3 34 20 00 	mov    0x2034a3(%rip),%r8d        # 605168 <target_id>
  401cc5:	b9 23 35 40 00       	mov    $0x403523,%ecx
  401cca:	ba 00 20 00 00       	mov    $0x2000,%edx
  401ccf:	be 01 00 00 00       	mov    $0x1,%esi
  401cd4:	48 8d 7c 24 20       	lea    0x20(%rsp),%rdi
  401cd9:	b8 00 00 00 00       	mov    $0x0,%eax
  401cde:	e8 9d f1 ff ff       	callq  400e80 <__sprintf_chk@plt>
  401ce3:	48 83 c4 20          	add    $0x20,%rsp
  401ce7:	83 3d ba 37 20 00 00 	cmpl   $0x0,0x2037ba(%rip)        # 6054a8 <notify>
  401cee:	0f 84 81 00 00 00    	je     401d75 <notify_server+0x146>
  401cf4:	85 db                	test   %ebx,%ebx
  401cf6:	74 6e                	je     401d66 <notify_server+0x137>
  401cf8:	4c 8d 8c 24 00 20 00 	lea    0x2000(%rsp),%r9
  401cff:	00 
  401d00:	41 b8 00 00 00 00    	mov    $0x0,%r8d
  401d06:	48 89 e1             	mov    %rsp,%rcx
  401d09:	48 8b 15 60 34 20 00 	mov    0x203460(%rip),%rdx        # 605170 <lab>
  401d10:	48 8b 35 61 34 20 00 	mov    0x203461(%rip),%rsi        # 605178 <course>
  401d17:	48 8b 3d 42 34 20 00 	mov    0x203442(%rip),%rdi        # 605160 <user_id>
  401d1e:	e8 ef 10 00 00       	callq  402e12 <driver_post>
  401d23:	85 c0                	test   %eax,%eax
  401d25:	79 26                	jns    401d4d <notify_server+0x11e>
  401d27:	48 8d 94 24 00 20 00 	lea    0x2000(%rsp),%rdx
  401d2e:	00 
  401d2f:	be 3f 35 40 00       	mov    $0x40353f,%esi
  401d34:	bf 01 00 00 00       	mov    $0x1,%edi
  401d39:	b8 00 00 00 00       	mov    $0x0,%eax
  401d3e:	e8 bd f0 ff ff       	callq  400e00 <__printf_chk@plt>
  401d43:	bf 01 00 00 00       	mov    $0x1,%edi
  401d48:	e8 03 f1 ff ff       	callq  400e50 <exit@plt>
  401d4d:	bf 68 36 40 00       	mov    $0x403668,%edi
  401d52:	e8 79 ef ff ff       	callq  400cd0 <puts@plt>
  401d57:	bf 4b 35 40 00       	mov    $0x40354b,%edi
  401d5c:	e8 6f ef ff ff       	callq  400cd0 <puts@plt>
  401d61:	e9 9b 00 00 00       	jmpq   401e01 <notify_server+0x1d2>
  401d66:	bf 55 35 40 00       	mov    $0x403555,%edi
  401d6b:	e8 60 ef ff ff       	callq  400cd0 <puts@plt>
  401d70:	e9 8c 00 00 00       	jmpq   401e01 <notify_server+0x1d2>
  401d75:	85 db                	test   %ebx,%ebx
  401d77:	74 07                	je     401d80 <notify_server+0x151>
  401d79:	ba 19 35 40 00       	mov    $0x403519,%edx
  401d7e:	eb 05                	jmp    401d85 <notify_server+0x156>
  401d80:	ba 1e 35 40 00       	mov    $0x40351e,%edx
  401d85:	be a0 36 40 00       	mov    $0x4036a0,%esi
  401d8a:	bf 01 00 00 00       	mov    $0x1,%edi
  401d8f:	b8 00 00 00 00       	mov    $0x0,%eax
  401d94:	e8 67 f0 ff ff       	callq  400e00 <__printf_chk@plt>
  401d99:	48 8b 15 c0 33 20 00 	mov    0x2033c0(%rip),%rdx        # 605160 <user_id>
  401da0:	be 5c 35 40 00       	mov    $0x40355c,%esi
  401da5:	bf 01 00 00 00       	mov    $0x1,%edi
  401daa:	b8 00 00 00 00       	mov    $0x0,%eax
  401daf:	e8 4c f0 ff ff       	callq  400e00 <__printf_chk@plt>
  401db4:	48 8b 15 bd 33 20 00 	mov    0x2033bd(%rip),%rdx        # 605178 <course>
  401dbb:	be 69 35 40 00       	mov    $0x403569,%esi
  401dc0:	bf 01 00 00 00       	mov    $0x1,%edi
  401dc5:	b8 00 00 00 00       	mov    $0x0,%eax
  401dca:	e8 31 f0 ff ff       	callq  400e00 <__printf_chk@plt>
  401dcf:	48 8b 15 9a 33 20 00 	mov    0x20339a(%rip),%rdx        # 605170 <lab>
  401dd6:	be 75 35 40 00       	mov    $0x403575,%esi
  401ddb:	bf 01 00 00 00       	mov    $0x1,%edi
  401de0:	b8 00 00 00 00       	mov    $0x0,%eax
  401de5:	e8 16 f0 ff ff       	callq  400e00 <__printf_chk@plt>
  401dea:	48 89 e2             	mov    %rsp,%rdx
  401ded:	be 7e 35 40 00       	mov    $0x40357e,%esi
  401df2:	bf 01 00 00 00       	mov    $0x1,%edi
  401df7:	b8 00 00 00 00       	mov    $0x0,%eax
  401dfc:	e8 ff ef ff ff       	callq  400e00 <__printf_chk@plt>
  401e01:	48 8b 84 24 08 40 00 	mov    0x4008(%rsp),%rax
  401e08:	00 
  401e09:	64 48 33 04 25 28 00 	xor    %fs:0x28,%rax
  401e10:	00 00 
  401e12:	74 05                	je     401e19 <notify_server+0x1ea>
  401e14:	e8 d7 ee ff ff       	callq  400cf0 <__stack_chk_fail@plt>
  401e19:	48 81 c4 10 40 00 00 	add    $0x4010,%rsp
  401e20:	5b                   	pop    %rbx
  401e21:	c3                   	retq   

0000000000401e22 <validate>:
  401e22:	53                   	push   %rbx
  401e23:	89 fb                	mov    %edi,%ebx
  401e25:	83 3d fc 36 20 00 00 	cmpl   $0x0,0x2036fc(%rip)        # 605528 <is_checker>
  401e2c:	74 6b                	je     401e99 <validate+0x77>
  401e2e:	39 3d e8 36 20 00    	cmp    %edi,0x2036e8(%rip)        # 60551c <vlevel>
  401e34:	74 14                	je     401e4a <validate+0x28>
  401e36:	bf 8a 35 40 00       	mov    $0x40358a,%edi
  401e3b:	e8 90 ee ff ff       	callq  400cd0 <puts@plt>
  401e40:	b8 00 00 00 00       	mov    $0x0,%eax
  401e45:	e8 5e fd ff ff       	callq  401ba8 <check_fail>
  401e4a:	8b 15 c8 36 20 00    	mov    0x2036c8(%rip),%edx        # 605518 <check_level>
  401e50:	39 d7                	cmp    %edx,%edi
  401e52:	74 20                	je     401e74 <validate+0x52>
  401e54:	89 f9                	mov    %edi,%ecx
  401e56:	be c8 36 40 00       	mov    $0x4036c8,%esi
  401e5b:	bf 01 00 00 00       	mov    $0x1,%edi
  401e60:	b8 00 00 00 00       	mov    $0x0,%eax
  401e65:	e8 96 ef ff ff       	callq  400e00 <__printf_chk@plt>
  401e6a:	b8 00 00 00 00       	mov    $0x0,%eax
  401e6f:	e8 34 fd ff ff       	callq  401ba8 <check_fail>
  401e74:	0f be 15 cd 42 20 00 	movsbl 0x2042cd(%rip),%edx        # 606148 <target_prefix>
  401e7b:	41 b8 40 55 60 00    	mov    $0x605540,%r8d
  401e81:	89 f9                	mov    %edi,%ecx
  401e83:	be a8 35 40 00       	mov    $0x4035a8,%esi
  401e88:	bf 01 00 00 00       	mov    $0x1,%edi
  401e8d:	b8 00 00 00 00       	mov    $0x0,%eax
  401e92:	e8 69 ef ff ff       	callq  400e00 <__printf_chk@plt>
  401e97:	eb 49                	jmp    401ee2 <validate+0xc0>
  401e99:	3b 3d 7d 36 20 00    	cmp    0x20367d(%rip),%edi        # 60551c <vlevel>
  401e9f:	74 18                	je     401eb9 <validate+0x97>
  401ea1:	bf 8a 35 40 00       	mov    $0x40358a,%edi
  401ea6:	e8 25 ee ff ff       	callq  400cd0 <puts@plt>
  401eab:	89 de                	mov    %ebx,%esi
  401ead:	bf 00 00 00 00       	mov    $0x0,%edi
  401eb2:	e8 78 fd ff ff       	callq  401c2f <notify_server>
  401eb7:	eb 29                	jmp    401ee2 <validate+0xc0>
  401eb9:	0f be 0d 88 42 20 00 	movsbl 0x204288(%rip),%ecx        # 606148 <target_prefix>
  401ec0:	89 fa                	mov    %edi,%edx
  401ec2:	be f0 36 40 00       	mov    $0x4036f0,%esi
  401ec7:	bf 01 00 00 00       	mov    $0x1,%edi
  401ecc:	b8 00 00 00 00       	mov    $0x0,%eax
  401ed1:	e8 2a ef ff ff       	callq  400e00 <__printf_chk@plt>
  401ed6:	89 de                	mov    %ebx,%esi
  401ed8:	bf 01 00 00 00       	mov    $0x1,%edi
  401edd:	e8 4d fd ff ff       	callq  401c2f <notify_server>
  401ee2:	5b                   	pop    %rbx
  401ee3:	c3                   	retq   

0000000000401ee4 <fail>:
  401ee4:	48 83 ec 08          	sub    $0x8,%rsp
  401ee8:	83 3d 39 36 20 00 00 	cmpl   $0x0,0x203639(%rip)        # 605528 <is_checker>
  401eef:	74 0a                	je     401efb <fail+0x17>
  401ef1:	b8 00 00 00 00       	mov    $0x0,%eax
  401ef6:	e8 ad fc ff ff       	callq  401ba8 <check_fail>
  401efb:	89 fe                	mov    %edi,%esi
  401efd:	bf 00 00 00 00       	mov    $0x0,%edi
  401f02:	e8 28 fd ff ff       	callq  401c2f <notify_server>
  401f07:	48 83 c4 08          	add    $0x8,%rsp
  401f0b:	c3                   	retq   

0000000000401f0c <bushandler>:
  401f0c:	48 83 ec 08          	sub    $0x8,%rsp
  401f10:	83 3d 11 36 20 00 00 	cmpl   $0x0,0x203611(%rip)        # 605528 <is_checker>
  401f17:	74 14                	je     401f2d <bushandler+0x21>
  401f19:	bf bd 35 40 00       	mov    $0x4035bd,%edi
  401f1e:	e8 ad ed ff ff       	callq  400cd0 <puts@plt>
  401f23:	b8 00 00 00 00       	mov    $0x0,%eax
  401f28:	e8 7b fc ff ff       	callq  401ba8 <check_fail>
  401f2d:	bf 28 37 40 00       	mov    $0x403728,%edi
  401f32:	e8 99 ed ff ff       	callq  400cd0 <puts@plt>
  401f37:	bf c7 35 40 00       	mov    $0x4035c7,%edi
  401f3c:	e8 8f ed ff ff       	callq  400cd0 <puts@plt>
  401f41:	be 00 00 00 00       	mov    $0x0,%esi
  401f46:	bf 00 00 00 00       	mov    $0x0,%edi
  401f4b:	e8 df fc ff ff       	callq  401c2f <notify_server>
  401f50:	bf 01 00 00 00       	mov    $0x1,%edi
  401f55:	e8 f6 ee ff ff       	callq  400e50 <exit@plt>

0000000000401f5a <seghandler>:
  401f5a:	48 83 ec 08          	sub    $0x8,%rsp
  401f5e:	83 3d c3 35 20 00 00 	cmpl   $0x0,0x2035c3(%rip)        # 605528 <is_checker>
  401f65:	74 14                	je     401f7b <seghandler+0x21>
  401f67:	bf dd 35 40 00       	mov    $0x4035dd,%edi
  401f6c:	e8 5f ed ff ff       	callq  400cd0 <puts@plt>
  401f71:	b8 00 00 00 00       	mov    $0x0,%eax
  401f76:	e8 2d fc ff ff       	callq  401ba8 <check_fail>
  401f7b:	bf 48 37 40 00       	mov    $0x403748,%edi
  401f80:	e8 4b ed ff ff       	callq  400cd0 <puts@plt>
  401f85:	bf c7 35 40 00       	mov    $0x4035c7,%edi
  401f8a:	e8 41 ed ff ff       	callq  400cd0 <puts@plt>
  401f8f:	be 00 00 00 00       	mov    $0x0,%esi
  401f94:	bf 00 00 00 00       	mov    $0x0,%edi
  401f99:	e8 91 fc ff ff       	callq  401c2f <notify_server>
  401f9e:	bf 01 00 00 00       	mov    $0x1,%edi
  401fa3:	e8 a8 ee ff ff       	callq  400e50 <exit@plt>

0000000000401fa8 <illegalhandler>:
  401fa8:	48 83 ec 08          	sub    $0x8,%rsp
  401fac:	83 3d 75 35 20 00 00 	cmpl   $0x0,0x203575(%rip)        # 605528 <is_checker>
  401fb3:	74 14                	je     401fc9 <illegalhandler+0x21>
  401fb5:	bf f0 35 40 00       	mov    $0x4035f0,%edi
  401fba:	e8 11 ed ff ff       	callq  400cd0 <puts@plt>
  401fbf:	b8 00 00 00 00       	mov    $0x0,%eax
  401fc4:	e8 df fb ff ff       	callq  401ba8 <check_fail>
  401fc9:	bf 70 37 40 00       	mov    $0x403770,%edi
  401fce:	e8 fd ec ff ff       	callq  400cd0 <puts@plt>
  401fd3:	bf c7 35 40 00       	mov    $0x4035c7,%edi
  401fd8:	e8 f3 ec ff ff       	callq  400cd0 <puts@plt>
  401fdd:	be 00 00 00 00       	mov    $0x0,%esi
  401fe2:	bf 00 00 00 00       	mov    $0x0,%edi
  401fe7:	e8 43 fc ff ff       	callq  401c2f <notify_server>
  401fec:	bf 01 00 00 00       	mov    $0x1,%edi
  401ff1:	e8 5a ee ff ff       	callq  400e50 <exit@plt>

0000000000401ff6 <sigalrmhandler>:
  401ff6:	48 83 ec 08          	sub    $0x8,%rsp
  401ffa:	83 3d 27 35 20 00 00 	cmpl   $0x0,0x203527(%rip)        # 605528 <is_checker>
  402001:	74 14                	je     402017 <sigalrmhandler+0x21>
  402003:	bf 04 36 40 00       	mov    $0x403604,%edi
  402008:	e8 c3 ec ff ff       	callq  400cd0 <puts@plt>
  40200d:	b8 00 00 00 00       	mov    $0x0,%eax
  402012:	e8 91 fb ff ff       	callq  401ba8 <check_fail>
  402017:	ba 05 00 00 00       	mov    $0x5,%edx
  40201c:	be a0 37 40 00       	mov    $0x4037a0,%esi
  402021:	bf 01 00 00 00       	mov    $0x1,%edi
  402026:	b8 00 00 00 00       	mov    $0x0,%eax
  40202b:	e8 d0 ed ff ff       	callq  400e00 <__printf_chk@plt>
  402030:	be 00 00 00 00       	mov    $0x0,%esi
  402035:	bf 00 00 00 00       	mov    $0x0,%edi
  40203a:	e8 f0 fb ff ff       	callq  401c2f <notify_server>
  40203f:	bf 01 00 00 00       	mov    $0x1,%edi
  402044:	e8 07 ee ff ff       	callq  400e50 <exit@plt>

0000000000402049 <launch>:
  402049:	55                   	push   %rbp
  40204a:	48 89 e5             	mov    %rsp,%rbp
  40204d:	48 83 ec 10          	sub    $0x10,%rsp
  402051:	48 89 fa             	mov    %rdi,%rdx
  402054:	64 48 8b 04 25 28 00 	mov    %fs:0x28,%rax
  40205b:	00 00 
  40205d:	48 89 45 f8          	mov    %rax,-0x8(%rbp)
  402061:	31 c0                	xor    %eax,%eax
  402063:	48 8d 47 1e          	lea    0x1e(%rdi),%rax
  402067:	48 83 e0 f0          	and    $0xfffffffffffffff0,%rax
  40206b:	48 29 c4             	sub    %rax,%rsp
  40206e:	48 8d 7c 24 0f       	lea    0xf(%rsp),%rdi
  402073:	48 83 e7 f0          	and    $0xfffffffffffffff0,%rdi
  402077:	be f4 00 00 00       	mov    $0xf4,%esi
  40207c:	e8 8f ec ff ff       	callq  400d10 <memset@plt>
  402081:	48 8b 05 38 34 20 00 	mov    0x203438(%rip),%rax        # 6054c0 <stdin@@GLIBC_2.2.5>
  402088:	48 39 05 81 34 20 00 	cmp    %rax,0x203481(%rip)        # 605510 <infile>
  40208f:	75 14                	jne    4020a5 <launch+0x5c>
  402091:	be 0c 36 40 00       	mov    $0x40360c,%esi
  402096:	bf 01 00 00 00       	mov    $0x1,%edi
  40209b:	b8 00 00 00 00       	mov    $0x0,%eax
  4020a0:	e8 5b ed ff ff       	callq  400e00 <__printf_chk@plt>
  4020a5:	c7 05 6d 34 20 00 00 	movl   $0x0,0x20346d(%rip)        # 60551c <vlevel>
  4020ac:	00 00 00 
  4020af:	b8 00 00 00 00       	mov    $0x0,%eax
  4020b4:	e8 5b fa ff ff       	callq  401b14 <test>
  4020b9:	83 3d 68 34 20 00 00 	cmpl   $0x0,0x203468(%rip)        # 605528 <is_checker>
  4020c0:	74 14                	je     4020d6 <launch+0x8d>
  4020c2:	bf 19 36 40 00       	mov    $0x403619,%edi
  4020c7:	e8 04 ec ff ff       	callq  400cd0 <puts@plt>
  4020cc:	b8 00 00 00 00       	mov    $0x0,%eax
  4020d1:	e8 d2 fa ff ff       	callq  401ba8 <check_fail>
  4020d6:	bf 24 36 40 00       	mov    $0x403624,%edi
  4020db:	e8 f0 eb ff ff       	callq  400cd0 <puts@plt>
  4020e0:	48 8b 45 f8          	mov    -0x8(%rbp),%rax
  4020e4:	64 48 33 04 25 28 00 	xor    %fs:0x28,%rax
  4020eb:	00 00 
  4020ed:	74 05                	je     4020f4 <launch+0xab>
  4020ef:	e8 fc eb ff ff       	callq  400cf0 <__stack_chk_fail@plt>
  4020f4:	c9                   	leaveq 
  4020f5:	c3                   	retq   

00000000004020f6 <stable_launch>:
  4020f6:	53                   	push   %rbx
  4020f7:	48 89 3d 0a 34 20 00 	mov    %rdi,0x20340a(%rip)        # 605508 <global_offset>
  4020fe:	41 b9 00 00 00 00    	mov    $0x0,%r9d
  402104:	41 b8 00 00 00 00    	mov    $0x0,%r8d
  40210a:	b9 32 01 00 00       	mov    $0x132,%ecx
  40210f:	ba 07 00 00 00       	mov    $0x7,%edx
  402114:	be 00 00 10 00       	mov    $0x100000,%esi
  402119:	bf 00 60 58 55       	mov    $0x55586000,%edi
  40211e:	e8 dd eb ff ff       	callq  400d00 <mmap@plt>
  402123:	48 89 c3             	mov    %rax,%rbx
  402126:	48 3d 00 60 58 55    	cmp    $0x55586000,%rax
  40212c:	74 37                	je     402165 <stable_launch+0x6f>
  40212e:	be 00 00 10 00       	mov    $0x100000,%esi
  402133:	48 89 c7             	mov    %rax,%rdi
  402136:	e8 b5 ec ff ff       	callq  400df0 <munmap@plt>
  40213b:	b9 00 60 58 55       	mov    $0x55586000,%ecx
  402140:	ba d8 37 40 00       	mov    $0x4037d8,%edx
  402145:	be 01 00 00 00       	mov    $0x1,%esi
  40214a:	48 8b 3d 8f 33 20 00 	mov    0x20338f(%rip),%rdi        # 6054e0 <stderr@@GLIBC_2.2.5>
  402151:	b8 00 00 00 00       	mov    $0x0,%eax
  402156:	e8 15 ed ff ff       	callq  400e70 <__fprintf_chk@plt>
  40215b:	bf 01 00 00 00       	mov    $0x1,%edi
  402160:	e8 eb ec ff ff       	callq  400e50 <exit@plt>
  402165:	48 8d 90 f8 ff 0f 00 	lea    0xffff8(%rax),%rdx
  40216c:	48 89 15 dd 3f 20 00 	mov    %rdx,0x203fdd(%rip)        # 606150 <stack_top>
  402173:	48 89 e0             	mov    %rsp,%rax
  402176:	48 89 d4             	mov    %rdx,%rsp
  402179:	48 89 c2             	mov    %rax,%rdx
  40217c:	48 89 15 7d 33 20 00 	mov    %rdx,0x20337d(%rip)        # 605500 <global_save_stack>
  402183:	48 8b 3d 7e 33 20 00 	mov    0x20337e(%rip),%rdi        # 605508 <global_offset>
  40218a:	e8 ba fe ff ff       	callq  402049 <launch>
  40218f:	48 8b 05 6a 33 20 00 	mov    0x20336a(%rip),%rax        # 605500 <global_save_stack>
  402196:	48 89 c4             	mov    %rax,%rsp
  402199:	be 00 00 10 00       	mov    $0x100000,%esi
  40219e:	48 89 df             	mov    %rbx,%rdi
  4021a1:	e8 4a ec ff ff       	callq  400df0 <munmap@plt>
  4021a6:	5b                   	pop    %rbx
  4021a7:	c3                   	retq   

00000000004021a8 <rio_readinitb>:
  4021a8:	89 37                	mov    %esi,(%rdi)
  4021aa:	c7 47 04 00 00 00 00 	movl   $0x0,0x4(%rdi)
  4021b1:	48 8d 47 10          	lea    0x10(%rdi),%rax
  4021b5:	48 89 47 08          	mov    %rax,0x8(%rdi)
  4021b9:	c3                   	retq   

00000000004021ba <sigalrm_handler>:
  4021ba:	48 83 ec 08          	sub    $0x8,%rsp
  4021be:	b9 00 00 00 00       	mov    $0x0,%ecx
  4021c3:	ba 10 38 40 00       	mov    $0x403810,%edx
  4021c8:	be 01 00 00 00       	mov    $0x1,%esi
  4021cd:	48 8b 3d 0c 33 20 00 	mov    0x20330c(%rip),%rdi        # 6054e0 <stderr@@GLIBC_2.2.5>
  4021d4:	b8 00 00 00 00       	mov    $0x0,%eax
  4021d9:	e8 92 ec ff ff       	callq  400e70 <__fprintf_chk@plt>
  4021de:	bf 01 00 00 00       	mov    $0x1,%edi
  4021e3:	e8 68 ec ff ff       	callq  400e50 <exit@plt>

00000000004021e8 <rio_writen>:
  4021e8:	41 55                	push   %r13
  4021ea:	41 54                	push   %r12
  4021ec:	55                   	push   %rbp
  4021ed:	53                   	push   %rbx
  4021ee:	48 83 ec 08          	sub    $0x8,%rsp
  4021f2:	41 89 fc             	mov    %edi,%r12d
  4021f5:	48 89 f5             	mov    %rsi,%rbp
  4021f8:	49 89 d5             	mov    %rdx,%r13
  4021fb:	48 89 d3             	mov    %rdx,%rbx
  4021fe:	eb 28                	jmp    402228 <rio_writen+0x40>
  402200:	48 89 da             	mov    %rbx,%rdx
  402203:	48 89 ee             	mov    %rbp,%rsi
  402206:	44 89 e7             	mov    %r12d,%edi
  402209:	e8 d2 ea ff ff       	callq  400ce0 <write@plt>
  40220e:	48 85 c0             	test   %rax,%rax
  402211:	7f 0f                	jg     402222 <rio_writen+0x3a>
  402213:	e8 78 ea ff ff       	callq  400c90 <__errno_location@plt>
  402218:	83 38 04             	cmpl   $0x4,(%rax)
  40221b:	75 15                	jne    402232 <rio_writen+0x4a>
  40221d:	b8 00 00 00 00       	mov    $0x0,%eax
  402222:	48 29 c3             	sub    %rax,%rbx
  402225:	48 01 c5             	add    %rax,%rbp
  402228:	48 85 db             	test   %rbx,%rbx
  40222b:	75 d3                	jne    402200 <rio_writen+0x18>
  40222d:	4c 89 e8             	mov    %r13,%rax
  402230:	eb 07                	jmp    402239 <rio_writen+0x51>
  402232:	48 c7 c0 ff ff ff ff 	mov    $0xffffffffffffffff,%rax
  402239:	48 83 c4 08          	add    $0x8,%rsp
  40223d:	5b                   	pop    %rbx
  40223e:	5d                   	pop    %rbp
  40223f:	41 5c                	pop    %r12
  402241:	41 5d                	pop    %r13
  402243:	c3                   	retq   

0000000000402244 <rio_read>:
  402244:	41 55                	push   %r13
  402246:	41 54                	push   %r12
  402248:	55                   	push   %rbp
  402249:	53                   	push   %rbx
  40224a:	48 83 ec 08          	sub    $0x8,%rsp
  40224e:	48 89 fb             	mov    %rdi,%rbx
  402251:	49 89 f5             	mov    %rsi,%r13
  402254:	49 89 d4             	mov    %rdx,%r12
  402257:	eb 2e                	jmp    402287 <rio_read+0x43>
  402259:	48 8d 6b 10          	lea    0x10(%rbx),%rbp
  40225d:	8b 3b                	mov    (%rbx),%edi
  40225f:	ba 00 20 00 00       	mov    $0x2000,%edx
  402264:	48 89 ee             	mov    %rbp,%rsi
  402267:	e8 d4 ea ff ff       	callq  400d40 <read@plt>
  40226c:	89 43 04             	mov    %eax,0x4(%rbx)
  40226f:	85 c0                	test   %eax,%eax
  402271:	79 0c                	jns    40227f <rio_read+0x3b>
  402273:	e8 18 ea ff ff       	callq  400c90 <__errno_location@plt>
  402278:	83 38 04             	cmpl   $0x4,(%rax)
  40227b:	74 0a                	je     402287 <rio_read+0x43>
  40227d:	eb 37                	jmp    4022b6 <rio_read+0x72>
  40227f:	85 c0                	test   %eax,%eax
  402281:	74 3c                	je     4022bf <rio_read+0x7b>
  402283:	48 89 6b 08          	mov    %rbp,0x8(%rbx)
  402287:	8b 6b 04             	mov    0x4(%rbx),%ebp
  40228a:	85 ed                	test   %ebp,%ebp
  40228c:	7e cb                	jle    402259 <rio_read+0x15>
  40228e:	89 e8                	mov    %ebp,%eax
  402290:	49 39 c4             	cmp    %rax,%r12
  402293:	77 03                	ja     402298 <rio_read+0x54>
  402295:	44 89 e5             	mov    %r12d,%ebp
  402298:	4c 63 e5             	movslq %ebp,%r12
  40229b:	48 8b 73 08          	mov    0x8(%rbx),%rsi
  40229f:	4c 89 e2             	mov    %r12,%rdx
  4022a2:	4c 89 ef             	mov    %r13,%rdi
  4022a5:	e8 f6 ea ff ff       	callq  400da0 <memcpy@plt>
  4022aa:	4c 01 63 08          	add    %r12,0x8(%rbx)
  4022ae:	29 6b 04             	sub    %ebp,0x4(%rbx)
  4022b1:	4c 89 e0             	mov    %r12,%rax
  4022b4:	eb 0e                	jmp    4022c4 <rio_read+0x80>
  4022b6:	48 c7 c0 ff ff ff ff 	mov    $0xffffffffffffffff,%rax
  4022bd:	eb 05                	jmp    4022c4 <rio_read+0x80>
  4022bf:	b8 00 00 00 00       	mov    $0x0,%eax
  4022c4:	48 83 c4 08          	add    $0x8,%rsp
  4022c8:	5b                   	pop    %rbx
  4022c9:	5d                   	pop    %rbp
  4022ca:	41 5c                	pop    %r12
  4022cc:	41 5d                	pop    %r13
  4022ce:	c3                   	retq   

00000000004022cf <rio_readlineb>:
  4022cf:	41 55                	push   %r13
  4022d1:	41 54                	push   %r12
  4022d3:	55                   	push   %rbp
  4022d4:	53                   	push   %rbx
  4022d5:	48 83 ec 18          	sub    $0x18,%rsp
  4022d9:	49 89 fd             	mov    %rdi,%r13
  4022dc:	48 89 f5             	mov    %rsi,%rbp
  4022df:	49 89 d4             	mov    %rdx,%r12
  4022e2:	64 48 8b 04 25 28 00 	mov    %fs:0x28,%rax
  4022e9:	00 00 
  4022eb:	48 89 44 24 08       	mov    %rax,0x8(%rsp)
  4022f0:	31 c0                	xor    %eax,%eax
  4022f2:	bb 01 00 00 00       	mov    $0x1,%ebx
  4022f7:	eb 3f                	jmp    402338 <rio_readlineb+0x69>
  4022f9:	ba 01 00 00 00       	mov    $0x1,%edx
  4022fe:	48 8d 74 24 07       	lea    0x7(%rsp),%rsi
  402303:	4c 89 ef             	mov    %r13,%rdi
  402306:	e8 39 ff ff ff       	callq  402244 <rio_read>
  40230b:	83 f8 01             	cmp    $0x1,%eax
  40230e:	75 15                	jne    402325 <rio_readlineb+0x56>
  402310:	48 8d 45 01          	lea    0x1(%rbp),%rax
  402314:	0f b6 54 24 07       	movzbl 0x7(%rsp),%edx
  402319:	88 55 00             	mov    %dl,0x0(%rbp)
  40231c:	80 7c 24 07 0a       	cmpb   $0xa,0x7(%rsp)
  402321:	75 0e                	jne    402331 <rio_readlineb+0x62>
  402323:	eb 1a                	jmp    40233f <rio_readlineb+0x70>
  402325:	85 c0                	test   %eax,%eax
  402327:	75 22                	jne    40234b <rio_readlineb+0x7c>
  402329:	48 83 fb 01          	cmp    $0x1,%rbx
  40232d:	75 13                	jne    402342 <rio_readlineb+0x73>
  40232f:	eb 23                	jmp    402354 <rio_readlineb+0x85>
  402331:	48 83 c3 01          	add    $0x1,%rbx
  402335:	48 89 c5             	mov    %rax,%rbp
  402338:	4c 39 e3             	cmp    %r12,%rbx
  40233b:	72 bc                	jb     4022f9 <rio_readlineb+0x2a>
  40233d:	eb 03                	jmp    402342 <rio_readlineb+0x73>
  40233f:	48 89 c5             	mov    %rax,%rbp
  402342:	c6 45 00 00          	movb   $0x0,0x0(%rbp)
  402346:	48 89 d8             	mov    %rbx,%rax
  402349:	eb 0e                	jmp    402359 <rio_readlineb+0x8a>
  40234b:	48 c7 c0 ff ff ff ff 	mov    $0xffffffffffffffff,%rax
  402352:	eb 05                	jmp    402359 <rio_readlineb+0x8a>
  402354:	b8 00 00 00 00       	mov    $0x0,%eax
  402359:	48 8b 4c 24 08       	mov    0x8(%rsp),%rcx
  40235e:	64 48 33 0c 25 28 00 	xor    %fs:0x28,%rcx
  402365:	00 00 
  402367:	74 05                	je     40236e <rio_readlineb+0x9f>
  402369:	e8 82 e9 ff ff       	callq  400cf0 <__stack_chk_fail@plt>
  40236e:	48 83 c4 18          	add    $0x18,%rsp
  402372:	5b                   	pop    %rbx
  402373:	5d                   	pop    %rbp
  402374:	41 5c                	pop    %r12
  402376:	41 5d                	pop    %r13
  402378:	c3                   	retq   

0000000000402379 <urlencode>:
  402379:	41 54                	push   %r12
  40237b:	55                   	push   %rbp
  40237c:	53                   	push   %rbx
  40237d:	48 83 ec 10          	sub    $0x10,%rsp
  402381:	48 89 fb             	mov    %rdi,%rbx
  402384:	48 89 f5             	mov    %rsi,%rbp
  402387:	64 48 8b 04 25 28 00 	mov    %fs:0x28,%rax
  40238e:	00 00 
  402390:	48 89 44 24 08       	mov    %rax,0x8(%rsp)
  402395:	31 c0                	xor    %eax,%eax
  402397:	48 c7 c1 ff ff ff ff 	mov    $0xffffffffffffffff,%rcx
  40239e:	f2 ae                	repnz scas %es:(%rdi),%al
  4023a0:	48 f7 d1             	not    %rcx
  4023a3:	8d 41 ff             	lea    -0x1(%rcx),%eax
  4023a6:	e9 aa 00 00 00       	jmpq   402455 <urlencode+0xdc>
  4023ab:	44 0f b6 03          	movzbl (%rbx),%r8d
  4023af:	41 80 f8 2a          	cmp    $0x2a,%r8b
  4023b3:	0f 94 c2             	sete   %dl
  4023b6:	41 80 f8 2d          	cmp    $0x2d,%r8b
  4023ba:	0f 94 c0             	sete   %al
  4023bd:	08 c2                	or     %al,%dl
  4023bf:	75 24                	jne    4023e5 <urlencode+0x6c>
  4023c1:	41 80 f8 2e          	cmp    $0x2e,%r8b
  4023c5:	74 1e                	je     4023e5 <urlencode+0x6c>
  4023c7:	41 80 f8 5f          	cmp    $0x5f,%r8b
  4023cb:	74 18                	je     4023e5 <urlencode+0x6c>
  4023cd:	41 8d 40 d0          	lea    -0x30(%r8),%eax
  4023d1:	3c 09                	cmp    $0x9,%al
  4023d3:	76 10                	jbe    4023e5 <urlencode+0x6c>
  4023d5:	41 8d 40 bf          	lea    -0x41(%r8),%eax
  4023d9:	3c 19                	cmp    $0x19,%al
  4023db:	76 08                	jbe    4023e5 <urlencode+0x6c>
  4023dd:	41 8d 40 9f          	lea    -0x61(%r8),%eax
  4023e1:	3c 19                	cmp    $0x19,%al
  4023e3:	77 0a                	ja     4023ef <urlencode+0x76>
  4023e5:	44 88 45 00          	mov    %r8b,0x0(%rbp)
  4023e9:	48 8d 6d 01          	lea    0x1(%rbp),%rbp
  4023ed:	eb 5f                	jmp    40244e <urlencode+0xd5>
  4023ef:	41 80 f8 20          	cmp    $0x20,%r8b
  4023f3:	75 0a                	jne    4023ff <urlencode+0x86>
  4023f5:	c6 45 00 2b          	movb   $0x2b,0x0(%rbp)
  4023f9:	48 8d 6d 01          	lea    0x1(%rbp),%rbp
  4023fd:	eb 4f                	jmp    40244e <urlencode+0xd5>
  4023ff:	41 8d 40 e0          	lea    -0x20(%r8),%eax
  402403:	3c 5f                	cmp    $0x5f,%al
  402405:	0f 96 c2             	setbe  %dl
  402408:	41 80 f8 09          	cmp    $0x9,%r8b
  40240c:	0f 94 c0             	sete   %al
  40240f:	08 c2                	or     %al,%dl
  402411:	74 50                	je     402463 <urlencode+0xea>
  402413:	45 0f b6 c0          	movzbl %r8b,%r8d
  402417:	b9 a8 38 40 00       	mov    $0x4038a8,%ecx
  40241c:	ba 08 00 00 00       	mov    $0x8,%edx
  402421:	be 01 00 00 00       	mov    $0x1,%esi
  402426:	48 89 e7             	mov    %rsp,%rdi
  402429:	b8 00 00 00 00       	mov    $0x0,%eax
  40242e:	e8 4d ea ff ff       	callq  400e80 <__sprintf_chk@plt>
  402433:	0f b6 04 24          	movzbl (%rsp),%eax
  402437:	88 45 00             	mov    %al,0x0(%rbp)
  40243a:	0f b6 44 24 01       	movzbl 0x1(%rsp),%eax
  40243f:	88 45 01             	mov    %al,0x1(%rbp)
  402442:	0f b6 44 24 02       	movzbl 0x2(%rsp),%eax
  402447:	88 45 02             	mov    %al,0x2(%rbp)
  40244a:	48 8d 6d 03          	lea    0x3(%rbp),%rbp
  40244e:	48 83 c3 01          	add    $0x1,%rbx
  402452:	44 89 e0             	mov    %r12d,%eax
  402455:	44 8d 60 ff          	lea    -0x1(%rax),%r12d
  402459:	85 c0                	test   %eax,%eax
  40245b:	0f 85 4a ff ff ff    	jne    4023ab <urlencode+0x32>
  402461:	eb 05                	jmp    402468 <urlencode+0xef>
  402463:	b8 ff ff ff ff       	mov    $0xffffffff,%eax
  402468:	48 8b 74 24 08       	mov    0x8(%rsp),%rsi
  40246d:	64 48 33 34 25 28 00 	xor    %fs:0x28,%rsi
  402474:	00 00 
  402476:	74 05                	je     40247d <urlencode+0x104>
  402478:	e8 73 e8 ff ff       	callq  400cf0 <__stack_chk_fail@plt>
  40247d:	48 83 c4 10          	add    $0x10,%rsp
  402481:	5b                   	pop    %rbx
  402482:	5d                   	pop    %rbp
  402483:	41 5c                	pop    %r12
  402485:	c3                   	retq   

0000000000402486 <submitr>:
  402486:	41 57                	push   %r15
  402488:	41 56                	push   %r14
  40248a:	41 55                	push   %r13
  40248c:	41 54                	push   %r12
  40248e:	55                   	push   %rbp
  40248f:	53                   	push   %rbx
  402490:	48 81 ec 58 a0 00 00 	sub    $0xa058,%rsp
  402497:	49 89 fc             	mov    %rdi,%r12
  40249a:	89 74 24 04          	mov    %esi,0x4(%rsp)
  40249e:	49 89 d7             	mov    %rdx,%r15
  4024a1:	49 89 ce             	mov    %rcx,%r14
  4024a4:	4c 89 44 24 08       	mov    %r8,0x8(%rsp)
  4024a9:	4d 89 cd             	mov    %r9,%r13
  4024ac:	48 8b 9c 24 90 a0 00 	mov    0xa090(%rsp),%rbx
  4024b3:	00 
  4024b4:	64 48 8b 04 25 28 00 	mov    %fs:0x28,%rax
  4024bb:	00 00 
  4024bd:	48 89 84 24 48 a0 00 	mov    %rax,0xa048(%rsp)
  4024c4:	00 
  4024c5:	31 c0                	xor    %eax,%eax
  4024c7:	c7 44 24 1c 00 00 00 	movl   $0x0,0x1c(%rsp)
  4024ce:	00 
  4024cf:	ba 00 00 00 00       	mov    $0x0,%edx
  4024d4:	be 01 00 00 00       	mov    $0x1,%esi
  4024d9:	bf 02 00 00 00       	mov    $0x2,%edi
  4024de:	e8 ad e9 ff ff       	callq  400e90 <socket@plt>
  4024e3:	85 c0                	test   %eax,%eax
  4024e5:	79 4e                	jns    402535 <submitr+0xaf>
  4024e7:	48 b8 45 72 72 6f 72 	movabs $0x43203a726f727245,%rax
  4024ee:	3a 20 43 
  4024f1:	48 89 03             	mov    %rax,(%rbx)
  4024f4:	48 b8 6c 69 65 6e 74 	movabs $0x6e7520746e65696c,%rax
  4024fb:	20 75 6e 
  4024fe:	48 89 43 08          	mov    %rax,0x8(%rbx)
  402502:	48 b8 61 62 6c 65 20 	movabs $0x206f7420656c6261,%rax
  402509:	74 6f 20 
  40250c:	48 89 43 10          	mov    %rax,0x10(%rbx)
  402510:	48 b8 63 72 65 61 74 	movabs $0x7320657461657263,%rax
  402517:	65 20 73 
  40251a:	48 89 43 18          	mov    %rax,0x18(%rbx)
  40251e:	c7 43 20 6f 63 6b 65 	movl   $0x656b636f,0x20(%rbx)
  402525:	66 c7 43 24 74 00    	movw   $0x74,0x24(%rbx)
  40252b:	b8 ff ff ff ff       	mov    $0xffffffff,%eax
  402530:	e9 97 06 00 00       	jmpq   402bcc <submitr+0x746>
  402535:	89 c5                	mov    %eax,%ebp
  402537:	4c 89 e7             	mov    %r12,%rdi
  40253a:	e8 31 e8 ff ff       	callq  400d70 <gethostbyname@plt>
  40253f:	48 85 c0             	test   %rax,%rax
  402542:	75 67                	jne    4025ab <submitr+0x125>
  402544:	48 b8 45 72 72 6f 72 	movabs $0x44203a726f727245,%rax
  40254b:	3a 20 44 
  40254e:	48 89 03             	mov    %rax,(%rbx)
  402551:	48 b8 4e 53 20 69 73 	movabs $0x6e7520736920534e,%rax
  402558:	20 75 6e 
  40255b:	48 89 43 08          	mov    %rax,0x8(%rbx)
  40255f:	48 b8 61 62 6c 65 20 	movabs $0x206f7420656c6261,%rax
  402566:	74 6f 20 
  402569:	48 89 43 10          	mov    %rax,0x10(%rbx)
  40256d:	48 b8 72 65 73 6f 6c 	movabs $0x2065766c6f736572,%rax
  402574:	76 65 20 
  402577:	48 89 43 18          	mov    %rax,0x18(%rbx)
  40257b:	48 b8 73 65 72 76 65 	movabs $0x6120726576726573,%rax
  402582:	72 20 61 
  402585:	48 89 43 20          	mov    %rax,0x20(%rbx)
  402589:	c7 43 28 64 64 72 65 	movl   $0x65726464,0x28(%rbx)
  402590:	66 c7 43 2c 73 73    	movw   $0x7373,0x2c(%rbx)
  402596:	c6 43 2e 00          	movb   $0x0,0x2e(%rbx)
  40259a:	89 ef                	mov    %ebp,%edi
  40259c:	e8 8f e7 ff ff       	callq  400d30 <close@plt>
  4025a1:	b8 ff ff ff ff       	mov    $0xffffffff,%eax
  4025a6:	e9 21 06 00 00       	jmpq   402bcc <submitr+0x746>
  4025ab:	48 c7 44 24 20 00 00 	movq   $0x0,0x20(%rsp)
  4025b2:	00 00 
  4025b4:	48 c7 44 24 28 00 00 	movq   $0x0,0x28(%rsp)
  4025bb:	00 00 
  4025bd:	66 c7 44 24 20 02 00 	movw   $0x2,0x20(%rsp)
  4025c4:	48 63 50 14          	movslq 0x14(%rax),%rdx
  4025c8:	48 8b 40 18          	mov    0x18(%rax),%rax
  4025cc:	48 8b 30             	mov    (%rax),%rsi
  4025cf:	48 8d 7c 24 24       	lea    0x24(%rsp),%rdi
  4025d4:	b9 0c 00 00 00       	mov    $0xc,%ecx
  4025d9:	e8 a2 e7 ff ff       	callq  400d80 <__memmove_chk@plt>
  4025de:	0f b7 44 24 04       	movzwl 0x4(%rsp),%eax
  4025e3:	66 c1 c8 08          	ror    $0x8,%ax
  4025e7:	66 89 44 24 22       	mov    %ax,0x22(%rsp)
  4025ec:	ba 10 00 00 00       	mov    $0x10,%edx
  4025f1:	48 8d 74 24 20       	lea    0x20(%rsp),%rsi
  4025f6:	89 ef                	mov    %ebp,%edi
  4025f8:	e8 63 e8 ff ff       	callq  400e60 <connect@plt>
  4025fd:	85 c0                	test   %eax,%eax
  4025ff:	79 59                	jns    40265a <submitr+0x1d4>
  402601:	48 b8 45 72 72 6f 72 	movabs $0x55203a726f727245,%rax
  402608:	3a 20 55 
  40260b:	48 89 03             	mov    %rax,(%rbx)
  40260e:	48 b8 6e 61 62 6c 65 	movabs $0x6f7420656c62616e,%rax
  402615:	20 74 6f 
  402618:	48 89 43 08          	mov    %rax,0x8(%rbx)
  40261c:	48 b8 20 63 6f 6e 6e 	movabs $0x7463656e6e6f6320,%rax
  402623:	65 63 74 
  402626:	48 89 43 10          	mov    %rax,0x10(%rbx)
  40262a:	48 b8 20 74 6f 20 74 	movabs $0x20656874206f7420,%rax
  402631:	68 65 20 
  402634:	48 89 43 18          	mov    %rax,0x18(%rbx)
  402638:	c7 43 20 73 65 72 76 	movl   $0x76726573,0x20(%rbx)
  40263f:	66 c7 43 24 65 72    	movw   $0x7265,0x24(%rbx)
  402645:	c6 43 26 00          	movb   $0x0,0x26(%rbx)
  402649:	89 ef                	mov    %ebp,%edi
  40264b:	e8 e0 e6 ff ff       	callq  400d30 <close@plt>
  402650:	b8 ff ff ff ff       	mov    $0xffffffff,%eax
  402655:	e9 72 05 00 00       	jmpq   402bcc <submitr+0x746>
  40265a:	48 c7 c6 ff ff ff ff 	mov    $0xffffffffffffffff,%rsi
  402661:	b8 00 00 00 00       	mov    $0x0,%eax
  402666:	48 89 f1             	mov    %rsi,%rcx
  402669:	4c 89 ef             	mov    %r13,%rdi
  40266c:	f2 ae                	repnz scas %es:(%rdi),%al
  40266e:	48 f7 d1             	not    %rcx
  402671:	48 89 ca             	mov    %rcx,%rdx
  402674:	48 89 f1             	mov    %rsi,%rcx
  402677:	4c 89 ff             	mov    %r15,%rdi
  40267a:	f2 ae                	repnz scas %es:(%rdi),%al
  40267c:	48 f7 d1             	not    %rcx
  40267f:	49 89 c8             	mov    %rcx,%r8
  402682:	48 89 f1             	mov    %rsi,%rcx
  402685:	4c 89 f7             	mov    %r14,%rdi
  402688:	f2 ae                	repnz scas %es:(%rdi),%al
  40268a:	48 f7 d1             	not    %rcx
  40268d:	4d 8d 44 08 fe       	lea    -0x2(%r8,%rcx,1),%r8
  402692:	48 89 f1             	mov    %rsi,%rcx
  402695:	48 8b 7c 24 08       	mov    0x8(%rsp),%rdi
  40269a:	f2 ae                	repnz scas %es:(%rdi),%al
  40269c:	48 89 c8             	mov    %rcx,%rax
  40269f:	48 f7 d0             	not    %rax
  4026a2:	49 8d 4c 00 ff       	lea    -0x1(%r8,%rax,1),%rcx
  4026a7:	48 8d 44 52 fd       	lea    -0x3(%rdx,%rdx,2),%rax
  4026ac:	48 8d 84 01 80 00 00 	lea    0x80(%rcx,%rax,1),%rax
  4026b3:	00 
  4026b4:	48 3d 00 20 00 00    	cmp    $0x2000,%rax
  4026ba:	76 72                	jbe    40272e <submitr+0x2a8>
  4026bc:	48 b8 45 72 72 6f 72 	movabs $0x52203a726f727245,%rax
  4026c3:	3a 20 52 
  4026c6:	48 89 03             	mov    %rax,(%rbx)
  4026c9:	48 b8 65 73 75 6c 74 	movabs $0x747320746c757365,%rax
  4026d0:	20 73 74 
  4026d3:	48 89 43 08          	mov    %rax,0x8(%rbx)
  4026d7:	48 b8 72 69 6e 67 20 	movabs $0x6f6f7420676e6972,%rax
  4026de:	74 6f 6f 
  4026e1:	48 89 43 10          	mov    %rax,0x10(%rbx)
  4026e5:	48 b8 20 6c 61 72 67 	movabs $0x202e656772616c20,%rax
  4026ec:	65 2e 20 
  4026ef:	48 89 43 18          	mov    %rax,0x18(%rbx)
  4026f3:	48 b8 49 6e 63 72 65 	movabs $0x6573616572636e49,%rax
  4026fa:	61 73 65 
  4026fd:	48 89 43 20          	mov    %rax,0x20(%rbx)
  402701:	48 b8 20 53 55 42 4d 	movabs $0x5254494d42555320,%rax
  402708:	49 54 52 
  40270b:	48 89 43 28          	mov    %rax,0x28(%rbx)
  40270f:	48 b8 5f 4d 41 58 42 	movabs $0x46554258414d5f,%rax
  402716:	55 46 00 
  402719:	48 89 43 30          	mov    %rax,0x30(%rbx)
  40271d:	89 ef                	mov    %ebp,%edi
  40271f:	e8 0c e6 ff ff       	callq  400d30 <close@plt>
  402724:	b8 ff ff ff ff       	mov    $0xffffffff,%eax
  402729:	e9 9e 04 00 00       	jmpq   402bcc <submitr+0x746>
  40272e:	48 8d b4 24 40 40 00 	lea    0x4040(%rsp),%rsi
  402735:	00 
  402736:	b9 00 04 00 00       	mov    $0x400,%ecx
  40273b:	b8 00 00 00 00       	mov    $0x0,%eax
  402740:	48 89 f7             	mov    %rsi,%rdi
  402743:	f3 48 ab             	rep stos %rax,%es:(%rdi)
  402746:	4c 89 ef             	mov    %r13,%rdi
  402749:	e8 2b fc ff ff       	callq  402379 <urlencode>
  40274e:	85 c0                	test   %eax,%eax
  402750:	0f 89 8a 00 00 00    	jns    4027e0 <submitr+0x35a>
  402756:	48 b8 45 72 72 6f 72 	movabs $0x52203a726f727245,%rax
  40275d:	3a 20 52 
  402760:	48 89 03             	mov    %rax,(%rbx)
  402763:	48 b8 65 73 75 6c 74 	movabs $0x747320746c757365,%rax
  40276a:	20 73 74 
  40276d:	48 89 43 08          	mov    %rax,0x8(%rbx)
  402771:	48 b8 72 69 6e 67 20 	movabs $0x6e6f6320676e6972,%rax
  402778:	63 6f 6e 
  40277b:	48 89 43 10          	mov    %rax,0x10(%rbx)
  40277f:	48 b8 74 61 69 6e 73 	movabs $0x6e6120736e696174,%rax
  402786:	20 61 6e 
  402789:	48 89 43 18          	mov    %rax,0x18(%rbx)
  40278d:	48 b8 20 69 6c 6c 65 	movabs $0x6c6167656c6c6920,%rax
  402794:	67 61 6c 
  402797:	48 89 43 20          	mov    %rax,0x20(%rbx)
  40279b:	48 b8 20 6f 72 20 75 	movabs $0x72706e7520726f20,%rax
  4027a2:	6e 70 72 
  4027a5:	48 89 43 28          	mov    %rax,0x28(%rbx)
  4027a9:	48 b8 69 6e 74 61 62 	movabs $0x20656c6261746e69,%rax
  4027b0:	6c 65 20 
  4027b3:	48 89 43 30          	mov    %rax,0x30(%rbx)
  4027b7:	48 b8 63 68 61 72 61 	movabs $0x6574636172616863,%rax
  4027be:	63 74 65 
  4027c1:	48 89 43 38          	mov    %rax,0x38(%rbx)
  4027c5:	66 c7 43 40 72 2e    	movw   $0x2e72,0x40(%rbx)
  4027cb:	c6 43 42 00          	movb   $0x0,0x42(%rbx)
  4027cf:	89 ef                	mov    %ebp,%edi
  4027d1:	e8 5a e5 ff ff       	callq  400d30 <close@plt>
  4027d6:	b8 ff ff ff ff       	mov    $0xffffffff,%eax
  4027db:	e9 ec 03 00 00       	jmpq   402bcc <submitr+0x746>
  4027e0:	4c 8d ac 24 40 20 00 	lea    0x2040(%rsp),%r13
  4027e7:	00 
  4027e8:	41 54                	push   %r12
  4027ea:	48 8d 84 24 48 40 00 	lea    0x4048(%rsp),%rax
  4027f1:	00 
  4027f2:	50                   	push   %rax
  4027f3:	4d 89 f9             	mov    %r15,%r9
  4027f6:	4d 89 f0             	mov    %r14,%r8
  4027f9:	b9 38 38 40 00       	mov    $0x403838,%ecx
  4027fe:	ba 00 20 00 00       	mov    $0x2000,%edx
  402803:	be 01 00 00 00       	mov    $0x1,%esi
  402808:	4c 89 ef             	mov    %r13,%rdi
  40280b:	b8 00 00 00 00       	mov    $0x0,%eax
  402810:	e8 6b e6 ff ff       	callq  400e80 <__sprintf_chk@plt>
  402815:	b8 00 00 00 00       	mov    $0x0,%eax
  40281a:	48 c7 c1 ff ff ff ff 	mov    $0xffffffffffffffff,%rcx
  402821:	4c 89 ef             	mov    %r13,%rdi
  402824:	f2 ae                	repnz scas %es:(%rdi),%al
  402826:	48 f7 d1             	not    %rcx
  402829:	48 8d 51 ff          	lea    -0x1(%rcx),%rdx
  40282d:	4c 89 ee             	mov    %r13,%rsi
  402830:	89 ef                	mov    %ebp,%edi
  402832:	e8 b1 f9 ff ff       	callq  4021e8 <rio_writen>
  402837:	48 83 c4 10          	add    $0x10,%rsp
  40283b:	48 85 c0             	test   %rax,%rax
  40283e:	79 6e                	jns    4028ae <submitr+0x428>
  402840:	48 b8 45 72 72 6f 72 	movabs $0x43203a726f727245,%rax
  402847:	3a 20 43 
  40284a:	48 89 03             	mov    %rax,(%rbx)
  40284d:	48 b8 6c 69 65 6e 74 	movabs $0x6e7520746e65696c,%rax
  402854:	20 75 6e 
  402857:	48 89 43 08          	mov    %rax,0x8(%rbx)
  40285b:	48 b8 61 62 6c 65 20 	movabs $0x206f7420656c6261,%rax
  402862:	74 6f 20 
  402865:	48 89 43 10          	mov    %rax,0x10(%rbx)
  402869:	48 b8 77 72 69 74 65 	movabs $0x6f74206574697277,%rax
  402870:	20 74 6f 
  402873:	48 89 43 18          	mov    %rax,0x18(%rbx)
  402877:	48 b8 20 74 68 65 20 	movabs $0x7365722065687420,%rax
  40287e:	72 65 73 
  402881:	48 89 43 20          	mov    %rax,0x20(%rbx)
  402885:	48 b8 75 6c 74 20 73 	movabs $0x7672657320746c75,%rax
  40288c:	65 72 76 
  40288f:	48 89 43 28          	mov    %rax,0x28(%rbx)
  402893:	66 c7 43 30 65 72    	movw   $0x7265,0x30(%rbx)
  402899:	c6 43 32 00          	movb   $0x0,0x32(%rbx)
  40289d:	89 ef                	mov    %ebp,%edi
  40289f:	e8 8c e4 ff ff       	callq  400d30 <close@plt>
  4028a4:	b8 ff ff ff ff       	mov    $0xffffffff,%eax
  4028a9:	e9 1e 03 00 00       	jmpq   402bcc <submitr+0x746>
  4028ae:	89 ee                	mov    %ebp,%esi
  4028b0:	48 8d 7c 24 30       	lea    0x30(%rsp),%rdi
  4028b5:	e8 ee f8 ff ff       	callq  4021a8 <rio_readinitb>
  4028ba:	ba 00 20 00 00       	mov    $0x2000,%edx
  4028bf:	48 8d b4 24 40 20 00 	lea    0x2040(%rsp),%rsi
  4028c6:	00 
  4028c7:	48 8d 7c 24 30       	lea    0x30(%rsp),%rdi
  4028cc:	e8 fe f9 ff ff       	callq  4022cf <rio_readlineb>
  4028d1:	48 85 c0             	test   %rax,%rax
  4028d4:	7f 7d                	jg     402953 <submitr+0x4cd>
  4028d6:	48 b8 45 72 72 6f 72 	movabs $0x43203a726f727245,%rax
  4028dd:	3a 20 43 
  4028e0:	48 89 03             	mov    %rax,(%rbx)
  4028e3:	48 b8 6c 69 65 6e 74 	movabs $0x6e7520746e65696c,%rax
  4028ea:	20 75 6e 
  4028ed:	48 89 43 08          	mov    %rax,0x8(%rbx)
  4028f1:	48 b8 61 62 6c 65 20 	movabs $0x206f7420656c6261,%rax
  4028f8:	74 6f 20 
  4028fb:	48 89 43 10          	mov    %rax,0x10(%rbx)
  4028ff:	48 b8 72 65 61 64 20 	movabs $0x7269662064616572,%rax
  402906:	66 69 72 
  402909:	48 89 43 18          	mov    %rax,0x18(%rbx)
  40290d:	48 b8 73 74 20 68 65 	movabs $0x6564616568207473,%rax
  402914:	61 64 65 
  402917:	48 89 43 20          	mov    %rax,0x20(%rbx)
  40291b:	48 b8 72 20 66 72 6f 	movabs $0x72206d6f72662072,%rax
  402922:	6d 20 72 
  402925:	48 89 43 28          	mov    %rax,0x28(%rbx)
  402929:	48 b8 65 73 75 6c 74 	movabs $0x657320746c757365,%rax
  402930:	20 73 65 
  402933:	48 89 43 30          	mov    %rax,0x30(%rbx)
  402937:	c7 43 38 72 76 65 72 	movl   $0x72657672,0x38(%rbx)
  40293e:	c6 43 3c 00          	movb   $0x0,0x3c(%rbx)
  402942:	89 ef                	mov    %ebp,%edi
  402944:	e8 e7 e3 ff ff       	callq  400d30 <close@plt>
  402949:	b8 ff ff ff ff       	mov    $0xffffffff,%eax
  40294e:	e9 79 02 00 00       	jmpq   402bcc <submitr+0x746>
  402953:	4c 8d 84 24 40 80 00 	lea    0x8040(%rsp),%r8
  40295a:	00 
  40295b:	48 8d 4c 24 1c       	lea    0x1c(%rsp),%rcx
  402960:	48 8d 94 24 40 60 00 	lea    0x6040(%rsp),%rdx
  402967:	00 
  402968:	be af 38 40 00       	mov    $0x4038af,%esi
  40296d:	48 8d bc 24 40 20 00 	lea    0x2040(%rsp),%rdi
  402974:	00 
  402975:	b8 00 00 00 00       	mov    $0x0,%eax
  40297a:	e8 61 e4 ff ff       	callq  400de0 <__isoc99_sscanf@plt>
  40297f:	e9 95 00 00 00       	jmpq   402a19 <submitr+0x593>
  402984:	ba 00 20 00 00       	mov    $0x2000,%edx
  402989:	48 8d b4 24 40 20 00 	lea    0x2040(%rsp),%rsi
  402990:	00 
  402991:	48 8d 7c 24 30       	lea    0x30(%rsp),%rdi
  402996:	e8 34 f9 ff ff       	callq  4022cf <rio_readlineb>
  40299b:	48 85 c0             	test   %rax,%rax
  40299e:	7f 79                	jg     402a19 <submitr+0x593>
  4029a0:	48 b8 45 72 72 6f 72 	movabs $0x43203a726f727245,%rax
  4029a7:	3a 20 43 
  4029aa:	48 89 03             	mov    %rax,(%rbx)
  4029ad:	48 b8 6c 69 65 6e 74 	movabs $0x6e7520746e65696c,%rax
  4029b4:	20 75 6e 
  4029b7:	48 89 43 08          	mov    %rax,0x8(%rbx)
  4029bb:	48 b8 61 62 6c 65 20 	movabs $0x206f7420656c6261,%rax
  4029c2:	74 6f 20 
  4029c5:	48 89 43 10          	mov    %rax,0x10(%rbx)
  4029c9:	48 b8 72 65 61 64 20 	movabs $0x6165682064616572,%rax
  4029d0:	68 65 61 
  4029d3:	48 89 43 18          	mov    %rax,0x18(%rbx)
  4029d7:	48 b8 64 65 72 73 20 	movabs $0x6f72662073726564,%rax
  4029de:	66 72 6f 
  4029e1:	48 89 43 20          	mov    %rax,0x20(%rbx)
  4029e5:	48 b8 6d 20 74 68 65 	movabs $0x657220656874206d,%rax
  4029ec:	20 72 65 
  4029ef:	48 89 43 28          	mov    %rax,0x28(%rbx)
  4029f3:	48 b8 73 75 6c 74 20 	movabs $0x72657320746c7573,%rax
  4029fa:	73 65 72 
  4029fd:	48 89 43 30          	mov    %rax,0x30(%rbx)
  402a01:	c7 43 38 76 65 72 00 	movl   $0x726576,0x38(%rbx)
  402a08:	89 ef                	mov    %ebp,%edi
  402a0a:	e8 21 e3 ff ff       	callq  400d30 <close@plt>
  402a0f:	b8 ff ff ff ff       	mov    $0xffffffff,%eax
  402a14:	e9 b3 01 00 00       	jmpq   402bcc <submitr+0x746>
  402a19:	0f b6 94 24 40 20 00 	movzbl 0x2040(%rsp),%edx
  402a20:	00 
  402a21:	b8 0d 00 00 00       	mov    $0xd,%eax
  402a26:	29 d0                	sub    %edx,%eax
  402a28:	75 1b                	jne    402a45 <submitr+0x5bf>
  402a2a:	0f b6 94 24 41 20 00 	movzbl 0x2041(%rsp),%edx
  402a31:	00 
  402a32:	b8 0a 00 00 00       	mov    $0xa,%eax
  402a37:	29 d0                	sub    %edx,%eax
  402a39:	75 0a                	jne    402a45 <submitr+0x5bf>
  402a3b:	0f b6 84 24 42 20 00 	movzbl 0x2042(%rsp),%eax
  402a42:	00 
  402a43:	f7 d8                	neg    %eax
  402a45:	85 c0                	test   %eax,%eax
  402a47:	0f 85 37 ff ff ff    	jne    402984 <submitr+0x4fe>
  402a4d:	ba 00 20 00 00       	mov    $0x2000,%edx
  402a52:	48 8d b4 24 40 20 00 	lea    0x2040(%rsp),%rsi
  402a59:	00 
  402a5a:	48 8d 7c 24 30       	lea    0x30(%rsp),%rdi
  402a5f:	e8 6b f8 ff ff       	callq  4022cf <rio_readlineb>
  402a64:	48 85 c0             	test   %rax,%rax
  402a67:	0f 8f 83 00 00 00    	jg     402af0 <submitr+0x66a>
  402a6d:	48 b8 45 72 72 6f 72 	movabs $0x43203a726f727245,%rax
  402a74:	3a 20 43 
  402a77:	48 89 03             	mov    %rax,(%rbx)
  402a7a:	48 b8 6c 69 65 6e 74 	movabs $0x6e7520746e65696c,%rax
  402a81:	20 75 6e 
  402a84:	48 89 43 08          	mov    %rax,0x8(%rbx)
  402a88:	48 b8 61 62 6c 65 20 	movabs $0x206f7420656c6261,%rax
  402a8f:	74 6f 20 
  402a92:	48 89 43 10          	mov    %rax,0x10(%rbx)
  402a96:	48 b8 72 65 61 64 20 	movabs $0x6174732064616572,%rax
  402a9d:	73 74 61 
  402aa0:	48 89 43 18          	mov    %rax,0x18(%rbx)
  402aa4:	48 b8 74 75 73 20 6d 	movabs $0x7373656d20737574,%rax
  402aab:	65 73 73 
  402aae:	48 89 43 20          	mov    %rax,0x20(%rbx)
  402ab2:	48 b8 61 67 65 20 66 	movabs $0x6d6f726620656761,%rax
  402ab9:	72 6f 6d 
  402abc:	48 89 43 28          	mov    %rax,0x28(%rbx)
  402ac0:	48 b8 20 72 65 73 75 	movabs $0x20746c7573657220,%rax
  402ac7:	6c 74 20 
  402aca:	48 89 43 30          	mov    %rax,0x30(%rbx)
  402ace:	c7 43 38 73 65 72 76 	movl   $0x76726573,0x38(%rbx)
  402ad5:	66 c7 43 3c 65 72    	movw   $0x7265,0x3c(%rbx)
  402adb:	c6 43 3e 00          	movb   $0x0,0x3e(%rbx)
  402adf:	89 ef                	mov    %ebp,%edi
  402ae1:	e8 4a e2 ff ff       	callq  400d30 <close@plt>
  402ae6:	b8 ff ff ff ff       	mov    $0xffffffff,%eax
  402aeb:	e9 dc 00 00 00       	jmpq   402bcc <submitr+0x746>
  402af0:	44 8b 44 24 1c       	mov    0x1c(%rsp),%r8d
  402af5:	41 81 f8 c8 00 00 00 	cmp    $0xc8,%r8d
  402afc:	74 37                	je     402b35 <submitr+0x6af>
  402afe:	4c 8d 8c 24 40 80 00 	lea    0x8040(%rsp),%r9
  402b05:	00 
  402b06:	b9 78 38 40 00       	mov    $0x403878,%ecx
  402b0b:	48 c7 c2 ff ff ff ff 	mov    $0xffffffffffffffff,%rdx
  402b12:	be 01 00 00 00       	mov    $0x1,%esi
  402b17:	48 89 df             	mov    %rbx,%rdi
  402b1a:	b8 00 00 00 00       	mov    $0x0,%eax
  402b1f:	e8 5c e3 ff ff       	callq  400e80 <__sprintf_chk@plt>
  402b24:	89 ef                	mov    %ebp,%edi
  402b26:	e8 05 e2 ff ff       	callq  400d30 <close@plt>
  402b2b:	b8 ff ff ff ff       	mov    $0xffffffff,%eax
  402b30:	e9 97 00 00 00       	jmpq   402bcc <submitr+0x746>
  402b35:	48 8d b4 24 40 20 00 	lea    0x2040(%rsp),%rsi
  402b3c:	00 
  402b3d:	48 89 df             	mov    %rbx,%rdi
  402b40:	e8 7b e1 ff ff       	callq  400cc0 <strcpy@plt>
  402b45:	89 ef                	mov    %ebp,%edi
  402b47:	e8 e4 e1 ff ff       	callq  400d30 <close@plt>
  402b4c:	0f b6 03             	movzbl (%rbx),%eax
  402b4f:	ba 4f 00 00 00       	mov    $0x4f,%edx
  402b54:	29 c2                	sub    %eax,%edx
  402b56:	75 22                	jne    402b7a <submitr+0x6f4>
  402b58:	0f b6 4b 01          	movzbl 0x1(%rbx),%ecx
  402b5c:	b8 4b 00 00 00       	mov    $0x4b,%eax
  402b61:	29 c8                	sub    %ecx,%eax
  402b63:	75 17                	jne    402b7c <submitr+0x6f6>
  402b65:	0f b6 4b 02          	movzbl 0x2(%rbx),%ecx
  402b69:	b8 0a 00 00 00       	mov    $0xa,%eax
  402b6e:	29 c8                	sub    %ecx,%eax
  402b70:	75 0a                	jne    402b7c <submitr+0x6f6>
  402b72:	0f b6 43 03          	movzbl 0x3(%rbx),%eax
  402b76:	f7 d8                	neg    %eax
  402b78:	eb 02                	jmp    402b7c <submitr+0x6f6>
  402b7a:	89 d0                	mov    %edx,%eax
  402b7c:	85 c0                	test   %eax,%eax
  402b7e:	74 40                	je     402bc0 <submitr+0x73a>
  402b80:	bf c0 38 40 00       	mov    $0x4038c0,%edi
  402b85:	b9 05 00 00 00       	mov    $0x5,%ecx
  402b8a:	48 89 de             	mov    %rbx,%rsi
  402b8d:	f3 a6                	repz cmpsb %es:(%rdi),%ds:(%rsi)
  402b8f:	0f 97 c0             	seta   %al
  402b92:	0f 92 c1             	setb   %cl
  402b95:	29 c8                	sub    %ecx,%eax
  402b97:	0f be c0             	movsbl %al,%eax
  402b9a:	85 c0                	test   %eax,%eax
  402b9c:	74 2e                	je     402bcc <submitr+0x746>
  402b9e:	85 d2                	test   %edx,%edx
  402ba0:	75 13                	jne    402bb5 <submitr+0x72f>
  402ba2:	0f b6 43 01          	movzbl 0x1(%rbx),%eax
  402ba6:	ba 4b 00 00 00       	mov    $0x4b,%edx
  402bab:	29 c2                	sub    %eax,%edx
  402bad:	75 06                	jne    402bb5 <submitr+0x72f>
  402baf:	0f b6 53 02          	movzbl 0x2(%rbx),%edx
  402bb3:	f7 da                	neg    %edx
  402bb5:	85 d2                	test   %edx,%edx
  402bb7:	75 0e                	jne    402bc7 <submitr+0x741>
  402bb9:	b8 00 00 00 00       	mov    $0x0,%eax
  402bbe:	eb 0c                	jmp    402bcc <submitr+0x746>
  402bc0:	b8 00 00 00 00       	mov    $0x0,%eax
  402bc5:	eb 05                	jmp    402bcc <submitr+0x746>
  402bc7:	b8 ff ff ff ff       	mov    $0xffffffff,%eax
  402bcc:	48 8b 9c 24 48 a0 00 	mov    0xa048(%rsp),%rbx
  402bd3:	00 
  402bd4:	64 48 33 1c 25 28 00 	xor    %fs:0x28,%rbx
  402bdb:	00 00 
  402bdd:	74 05                	je     402be4 <submitr+0x75e>
  402bdf:	e8 0c e1 ff ff       	callq  400cf0 <__stack_chk_fail@plt>
  402be4:	48 81 c4 58 a0 00 00 	add    $0xa058,%rsp
  402beb:	5b                   	pop    %rbx
  402bec:	5d                   	pop    %rbp
  402bed:	41 5c                	pop    %r12
  402bef:	41 5d                	pop    %r13
  402bf1:	41 5e                	pop    %r14
  402bf3:	41 5f                	pop    %r15
  402bf5:	c3                   	retq   

0000000000402bf6 <init_timeout>:
  402bf6:	85 ff                	test   %edi,%edi
  402bf8:	74 23                	je     402c1d <init_timeout+0x27>
  402bfa:	53                   	push   %rbx
  402bfb:	89 fb                	mov    %edi,%ebx
  402bfd:	85 ff                	test   %edi,%edi
  402bff:	79 05                	jns    402c06 <init_timeout+0x10>
  402c01:	bb 00 00 00 00       	mov    $0x0,%ebx
  402c06:	be ba 21 40 00       	mov    $0x4021ba,%esi
  402c0b:	bf 0e 00 00 00       	mov    $0xe,%edi
  402c10:	e8 4b e1 ff ff       	callq  400d60 <signal@plt>
  402c15:	89 df                	mov    %ebx,%edi
  402c17:	e8 04 e1 ff ff       	callq  400d20 <alarm@plt>
  402c1c:	5b                   	pop    %rbx
  402c1d:	f3 c3                	repz retq 

0000000000402c1f <init_driver>:
  402c1f:	55                   	push   %rbp
  402c20:	53                   	push   %rbx
  402c21:	48 83 ec 28          	sub    $0x28,%rsp
  402c25:	48 89 fd             	mov    %rdi,%rbp
  402c28:	64 48 8b 04 25 28 00 	mov    %fs:0x28,%rax
  402c2f:	00 00 
  402c31:	48 89 44 24 18       	mov    %rax,0x18(%rsp)
  402c36:	31 c0                	xor    %eax,%eax
  402c38:	be 01 00 00 00       	mov    $0x1,%esi
  402c3d:	bf 0d 00 00 00       	mov    $0xd,%edi
  402c42:	e8 19 e1 ff ff       	callq  400d60 <signal@plt>
  402c47:	be 01 00 00 00       	mov    $0x1,%esi
  402c4c:	bf 1d 00 00 00       	mov    $0x1d,%edi
  402c51:	e8 0a e1 ff ff       	callq  400d60 <signal@plt>
  402c56:	be 01 00 00 00       	mov    $0x1,%esi
  402c5b:	bf 1d 00 00 00       	mov    $0x1d,%edi
  402c60:	e8 fb e0 ff ff       	callq  400d60 <signal@plt>
  402c65:	ba 00 00 00 00       	mov    $0x0,%edx
  402c6a:	be 01 00 00 00       	mov    $0x1,%esi
  402c6f:	bf 02 00 00 00       	mov    $0x2,%edi
  402c74:	e8 17 e2 ff ff       	callq  400e90 <socket@plt>
  402c79:	85 c0                	test   %eax,%eax
  402c7b:	79 4f                	jns    402ccc <init_driver+0xad>
  402c7d:	48 b8 45 72 72 6f 72 	movabs $0x43203a726f727245,%rax
  402c84:	3a 20 43 
  402c87:	48 89 45 00          	mov    %rax,0x0(%rbp)
  402c8b:	48 b8 6c 69 65 6e 74 	movabs $0x6e7520746e65696c,%rax
  402c92:	20 75 6e 
  402c95:	48 89 45 08          	mov    %rax,0x8(%rbp)
  402c99:	48 b8 61 62 6c 65 20 	movabs $0x206f7420656c6261,%rax
  402ca0:	74 6f 20 
  402ca3:	48 89 45 10          	mov    %rax,0x10(%rbp)
  402ca7:	48 b8 63 72 65 61 74 	movabs $0x7320657461657263,%rax
  402cae:	65 20 73 
  402cb1:	48 89 45 18          	mov    %rax,0x18(%rbp)
  402cb5:	c7 45 20 6f 63 6b 65 	movl   $0x656b636f,0x20(%rbp)
  402cbc:	66 c7 45 24 74 00    	movw   $0x74,0x24(%rbp)
  402cc2:	b8 ff ff ff ff       	mov    $0xffffffff,%eax
  402cc7:	e9 2a 01 00 00       	jmpq   402df6 <init_driver+0x1d7>
  402ccc:	89 c3                	mov    %eax,%ebx
  402cce:	bf c5 38 40 00       	mov    $0x4038c5,%edi
  402cd3:	e8 98 e0 ff ff       	callq  400d70 <gethostbyname@plt>
  402cd8:	48 85 c0             	test   %rax,%rax
  402cdb:	75 68                	jne    402d45 <init_driver+0x126>
  402cdd:	48 b8 45 72 72 6f 72 	movabs $0x44203a726f727245,%rax
  402ce4:	3a 20 44 
  402ce7:	48 89 45 00          	mov    %rax,0x0(%rbp)
  402ceb:	48 b8 4e 53 20 69 73 	movabs $0x6e7520736920534e,%rax
  402cf2:	20 75 6e 
  402cf5:	48 89 45 08          	mov    %rax,0x8(%rbp)
  402cf9:	48 b8 61 62 6c 65 20 	movabs $0x206f7420656c6261,%rax
  402d00:	74 6f 20 
  402d03:	48 89 45 10          	mov    %rax,0x10(%rbp)
  402d07:	48 b8 72 65 73 6f 6c 	movabs $0x2065766c6f736572,%rax
  402d0e:	76 65 20 
  402d11:	48 89 45 18          	mov    %rax,0x18(%rbp)
  402d15:	48 b8 73 65 72 76 65 	movabs $0x6120726576726573,%rax
  402d1c:	72 20 61 
  402d1f:	48 89 45 20          	mov    %rax,0x20(%rbp)
  402d23:	c7 45 28 64 64 72 65 	movl   $0x65726464,0x28(%rbp)
  402d2a:	66 c7 45 2c 73 73    	movw   $0x7373,0x2c(%rbp)
  402d30:	c6 45 2e 00          	movb   $0x0,0x2e(%rbp)
  402d34:	89 df                	mov    %ebx,%edi
  402d36:	e8 f5 df ff ff       	callq  400d30 <close@plt>
  402d3b:	b8 ff ff ff ff       	mov    $0xffffffff,%eax
  402d40:	e9 b1 00 00 00       	jmpq   402df6 <init_driver+0x1d7>
  402d45:	48 c7 04 24 00 00 00 	movq   $0x0,(%rsp)
  402d4c:	00 
  402d4d:	48 c7 44 24 08 00 00 	movq   $0x0,0x8(%rsp)
  402d54:	00 00 
  402d56:	66 c7 04 24 02 00    	movw   $0x2,(%rsp)
  402d5c:	48 63 50 14          	movslq 0x14(%rax),%rdx
  402d60:	48 8b 40 18          	mov    0x18(%rax),%rax
  402d64:	48 8b 30             	mov    (%rax),%rsi
  402d67:	48 8d 7c 24 04       	lea    0x4(%rsp),%rdi
  402d6c:	b9 0c 00 00 00       	mov    $0xc,%ecx
  402d71:	e8 0a e0 ff ff       	callq  400d80 <__memmove_chk@plt>
  402d76:	66 c7 44 24 02 3c 9a 	movw   $0x9a3c,0x2(%rsp)
  402d7d:	ba 10 00 00 00       	mov    $0x10,%edx
  402d82:	48 89 e6             	mov    %rsp,%rsi
  402d85:	89 df                	mov    %ebx,%edi
  402d87:	e8 d4 e0 ff ff       	callq  400e60 <connect@plt>
  402d8c:	85 c0                	test   %eax,%eax
  402d8e:	79 50                	jns    402de0 <init_driver+0x1c1>
  402d90:	48 b8 45 72 72 6f 72 	movabs $0x55203a726f727245,%rax
  402d97:	3a 20 55 
  402d9a:	48 89 45 00          	mov    %rax,0x0(%rbp)
  402d9e:	48 b8 6e 61 62 6c 65 	movabs $0x6f7420656c62616e,%rax
  402da5:	20 74 6f 
  402da8:	48 89 45 08          	mov    %rax,0x8(%rbp)
  402dac:	48 b8 20 63 6f 6e 6e 	movabs $0x7463656e6e6f6320,%rax
  402db3:	65 63 74 
  402db6:	48 89 45 10          	mov    %rax,0x10(%rbp)
  402dba:	48 b8 20 74 6f 20 73 	movabs $0x76726573206f7420,%rax
  402dc1:	65 72 76 
  402dc4:	48 89 45 18          	mov    %rax,0x18(%rbp)
  402dc8:	66 c7 45 20 65 72    	movw   $0x7265,0x20(%rbp)
  402dce:	c6 45 22 00          	movb   $0x0,0x22(%rbp)
  402dd2:	89 df                	mov    %ebx,%edi
  402dd4:	e8 57 df ff ff       	callq  400d30 <close@plt>
  402dd9:	b8 ff ff ff ff       	mov    $0xffffffff,%eax
  402dde:	eb 16                	jmp    402df6 <init_driver+0x1d7>
  402de0:	89 df                	mov    %ebx,%edi
  402de2:	e8 49 df ff ff       	callq  400d30 <close@plt>
  402de7:	66 c7 45 00 4f 4b    	movw   $0x4b4f,0x0(%rbp)
  402ded:	c6 45 02 00          	movb   $0x0,0x2(%rbp)
  402df1:	b8 00 00 00 00       	mov    $0x0,%eax
  402df6:	48 8b 4c 24 18       	mov    0x18(%rsp),%rcx
  402dfb:	64 48 33 0c 25 28 00 	xor    %fs:0x28,%rcx
  402e02:	00 00 
  402e04:	74 05                	je     402e0b <init_driver+0x1ec>
  402e06:	e8 e5 de ff ff       	callq  400cf0 <__stack_chk_fail@plt>
  402e0b:	48 83 c4 28          	add    $0x28,%rsp
  402e0f:	5b                   	pop    %rbx
  402e10:	5d                   	pop    %rbp
  402e11:	c3                   	retq   

0000000000402e12 <driver_post>:
  402e12:	53                   	push   %rbx
  402e13:	4c 89 cb             	mov    %r9,%rbx
  402e16:	45 85 c0             	test   %r8d,%r8d
  402e19:	74 27                	je     402e42 <driver_post+0x30>
  402e1b:	48 89 ca             	mov    %rcx,%rdx
  402e1e:	be da 38 40 00       	mov    $0x4038da,%esi
  402e23:	bf 01 00 00 00       	mov    $0x1,%edi
  402e28:	b8 00 00 00 00       	mov    $0x0,%eax
  402e2d:	e8 ce df ff ff       	callq  400e00 <__printf_chk@plt>
  402e32:	66 c7 03 4f 4b       	movw   $0x4b4f,(%rbx)
  402e37:	c6 43 02 00          	movb   $0x0,0x2(%rbx)
  402e3b:	b8 00 00 00 00       	mov    $0x0,%eax
  402e40:	eb 3f                	jmp    402e81 <driver_post+0x6f>
  402e42:	48 85 ff             	test   %rdi,%rdi
  402e45:	74 2c                	je     402e73 <driver_post+0x61>
  402e47:	80 3f 00             	cmpb   $0x0,(%rdi)
  402e4a:	74 27                	je     402e73 <driver_post+0x61>
  402e4c:	48 83 ec 08          	sub    $0x8,%rsp
  402e50:	41 51                	push   %r9
  402e52:	49 89 c9             	mov    %rcx,%r9
  402e55:	49 89 d0             	mov    %rdx,%r8
  402e58:	48 89 f9             	mov    %rdi,%rcx
  402e5b:	48 89 f2             	mov    %rsi,%rdx
  402e5e:	be 9a 3c 00 00       	mov    $0x3c9a,%esi
  402e63:	bf c5 38 40 00       	mov    $0x4038c5,%edi
  402e68:	e8 19 f6 ff ff       	callq  402486 <submitr>
  402e6d:	48 83 c4 10          	add    $0x10,%rsp
  402e71:	eb 0e                	jmp    402e81 <driver_post+0x6f>
  402e73:	66 c7 03 4f 4b       	movw   $0x4b4f,(%rbx)
  402e78:	c6 43 02 00          	movb   $0x0,0x2(%rbx)
  402e7c:	b8 00 00 00 00       	mov    $0x0,%eax
  402e81:	5b                   	pop    %rbx
  402e82:	c3                   	retq   

0000000000402e83 <check>:
  402e83:	89 f8                	mov    %edi,%eax
  402e85:	c1 e8 1c             	shr    $0x1c,%eax
  402e88:	85 c0                	test   %eax,%eax
  402e8a:	74 1d                	je     402ea9 <check+0x26>
  402e8c:	b9 00 00 00 00       	mov    $0x0,%ecx
  402e91:	eb 0b                	jmp    402e9e <check+0x1b>
  402e93:	89 f8                	mov    %edi,%eax
  402e95:	d3 e8                	shr    %cl,%eax
  402e97:	3c 0a                	cmp    $0xa,%al
  402e99:	74 14                	je     402eaf <check+0x2c>
  402e9b:	83 c1 08             	add    $0x8,%ecx
  402e9e:	83 f9 1f             	cmp    $0x1f,%ecx
  402ea1:	7e f0                	jle    402e93 <check+0x10>
  402ea3:	b8 01 00 00 00       	mov    $0x1,%eax
  402ea8:	c3                   	retq   
  402ea9:	b8 00 00 00 00       	mov    $0x0,%eax
  402eae:	c3                   	retq   
  402eaf:	b8 00 00 00 00       	mov    $0x0,%eax
  402eb4:	c3                   	retq   

0000000000402eb5 <gencookie>:
  402eb5:	53                   	push   %rbx
  402eb6:	83 c7 01             	add    $0x1,%edi
  402eb9:	e8 e2 dd ff ff       	callq  400ca0 <srandom@plt>
  402ebe:	e8 fd de ff ff       	callq  400dc0 <random@plt>
  402ec3:	89 c3                	mov    %eax,%ebx
  402ec5:	89 c7                	mov    %eax,%edi
  402ec7:	e8 b7 ff ff ff       	callq  402e83 <check>
  402ecc:	85 c0                	test   %eax,%eax
  402ece:	74 ee                	je     402ebe <gencookie+0x9>
  402ed0:	89 d8                	mov    %ebx,%eax
  402ed2:	5b                   	pop    %rbx
  402ed3:	c3                   	retq   
  402ed4:	66 2e 0f 1f 84 00 00 	nopw   %cs:0x0(%rax,%rax,1)
  402edb:	00 00 00 
  402ede:	66 90                	xchg   %ax,%ax

0000000000402ee0 <__libc_csu_init>:
  402ee0:	41 57                	push   %r15
  402ee2:	41 56                	push   %r14
  402ee4:	41 89 ff             	mov    %edi,%r15d
  402ee7:	41 55                	push   %r13
  402ee9:	41 54                	push   %r12
  402eeb:	4c 8d 25 1e 1f 20 00 	lea    0x201f1e(%rip),%r12        # 604e10 <__frame_dummy_init_array_entry>
  402ef2:	55                   	push   %rbp
  402ef3:	48 8d 2d 1e 1f 20 00 	lea    0x201f1e(%rip),%rbp        # 604e18 <__do_global_dtors_aux_fini_array_entry>
  402efa:	53                   	push   %rbx
  402efb:	49 89 f6             	mov    %rsi,%r14
  402efe:	49 89 d5             	mov    %rdx,%r13
  402f01:	4c 29 e5             	sub    %r12,%rbp
  402f04:	48 83 ec 08          	sub    $0x8,%rsp
  402f08:	48 c1 fd 03          	sar    $0x3,%rbp
  402f0c:	e8 37 dd ff ff       	callq  400c48 <_init>
  402f11:	48 85 ed             	test   %rbp,%rbp
  402f14:	74 20                	je     402f36 <__libc_csu_init+0x56>
  402f16:	31 db                	xor    %ebx,%ebx
  402f18:	0f 1f 84 00 00 00 00 	nopl   0x0(%rax,%rax,1)
  402f1f:	00 
  402f20:	4c 89 ea             	mov    %r13,%rdx
  402f23:	4c 89 f6             	mov    %r14,%rsi
  402f26:	44 89 ff             	mov    %r15d,%edi
  402f29:	41 ff 14 dc          	callq  *(%r12,%rbx,8)
  402f2d:	48 83 c3 01          	add    $0x1,%rbx
  402f31:	48 39 eb             	cmp    %rbp,%rbx
  402f34:	75 ea                	jne    402f20 <__libc_csu_init+0x40>
  402f36:	48 83 c4 08          	add    $0x8,%rsp
  402f3a:	5b                   	pop    %rbx
  402f3b:	5d                   	pop    %rbp
  402f3c:	41 5c                	pop    %r12
  402f3e:	41 5d                	pop    %r13
  402f40:	41 5e                	pop    %r14
  402f42:	41 5f                	pop    %r15
  402f44:	c3                   	retq   
  402f45:	90                   	nop
  402f46:	66 2e 0f 1f 84 00 00 	nopw   %cs:0x0(%rax,%rax,1)
  402f4d:	00 00 00 

0000000000402f50 <__libc_csu_fini>:
  402f50:	f3 c3                	repz retq 

Disassembly of section .fini:

0000000000402f54 <_fini>:
  402f54:	48 83 ec 08          	sub    $0x8,%rsp
  402f58:	48 83 c4 08          	add    $0x8,%rsp
  402f5c:	c3                   	retq   
